GAS LISTING /tmp/ccthMRdI.s 			page 1


   1              		.file	"KBuffer.cpp"
   2              		.option pic
   3              		.option norelax
   4              		.text
   5              	.Ltext0:
   6              		.align	2
   7              		.globl	_ZN7KBufferC2Ei
   9              	_ZN7KBufferC2Ei:
  10              	.LFB36:
  11              		.file 1 "src/KBuffer.cpp"
   1:src/KBuffer.cpp **** //
   2:src/KBuffer.cpp **** // Created by os on 8/14/23.
   3:src/KBuffer.cpp **** //
   4:src/KBuffer.cpp **** 
   5:src/KBuffer.cpp **** #include "../h/KBuffer.h"
   6:src/KBuffer.cpp **** 
   7:src/KBuffer.cpp **** KBuffer::KBuffer(int _cap) : cap(_cap+1), head(0), tail(0) {
  12              		.loc 1 7 1
  13              		.cfi_startproc
  14              	.LVL0:
  15 0000 130101FE 		addi	sp,sp,-32
  16              		.cfi_def_cfa_offset 32
  17 0004 233C1100 		sd	ra,24(sp)
  18 0008 23388100 		sd	s0,16(sp)
  19 000c 23349100 		sd	s1,8(sp)
  20 0010 23302101 		sd	s2,0(sp)
  21              		.cfi_offset 1, -8
  22              		.cfi_offset 8, -16
  23              		.cfi_offset 9, -24
  24              		.cfi_offset 18, -32
  25 0014 13040102 		addi	s0,sp,32
  26              		.cfi_def_cfa 8, 0
  27 0018 93040500 		mv	s1,a0
  28 001c 13890500 		mv	s2,a1
  29              	.LBB15:
  30              		.loc 1 7 38 is_stmt 0
  31 0020 9B871500 		addiw	a5,a1,1
  32 0024 1B850700 		sext.w	a0,a5
  33              	.LVL1:
  34              		.loc 1 7 58
  35 0028 23A0F400 		sw	a5,0(s1)
  36 002c 23A80400 		sw	zero,16(s1)
  37 0030 23AA0400 		sw	zero,20(s1)
   8:src/KBuffer.cpp ****     buffer = (int *)MemoryAllocator::mem_alloc(sizeof(int) * cap);
  38              		.loc 1 8 5 is_stmt 1
  39              		.loc 1 8 47 is_stmt 0
  40 0034 13152500 		slli	a0,a0,2
  41 0038 97000000 		call	_ZN15MemoryAllocator9mem_allocEm@plt
  41      E7800000 
  42              	.LVL2:
  43              		.loc 1 8 12
  44 0040 23B4A400 		sd	a0,8(s1)
   9:src/KBuffer.cpp ****     itemAvailable = new Sem(0);
  45              		.loc 1 9 5 is_stmt 1
  46              		.loc 1 9 30 is_stmt 0
  47 0044 13058001 		li	a0,24
  48 0048 97000000 		call	_ZN3SemnwEm@plt
GAS LISTING /tmp/ccthMRdI.s 			page 2


  48      E7800000 
  49              	.LVL3:
  50              	.LBB16:
  51              	.LBB17:
  52              		.file 2 "src/../h/Sem.h"
   1:src/../h/Sem.h **** //
   2:src/../h/Sem.h **** // Created by os on 7/18/23.
   3:src/../h/Sem.h **** //
   4:src/../h/Sem.h **** 
   5:src/../h/Sem.h **** #ifndef PROJECT_BASE_SEM_H
   6:src/../h/Sem.h **** #define PROJECT_BASE_SEM_H
   7:src/../h/Sem.h **** 
   8:src/../h/Sem.h **** #include "TCB.h"
   9:src/../h/Sem.h **** 
  10:src/../h/Sem.h **** class Sem {
  11:src/../h/Sem.h **** private:
  12:src/../h/Sem.h ****     Sem (int initValue=1) : val(initValue) {
  53              		.loc 2 12 42
  54 0050 23280500 		sw	zero,16(a0)
  13:src/../h/Sem.h ****         head = tail = 0;
  55              		.loc 2 13 9 is_stmt 1
  56              		.loc 2 13 21 is_stmt 0
  57 0054 23340500 		sd	zero,8(a0)
  58              		.loc 2 13 14
  59 0058 23300500 		sd	zero,0(a0)
  60              	.LVL4:
  61              	.LBE17:
  62              	.LBE16:
  63              		.loc 1 9 19
  64 005c 23B0A402 		sd	a0,32(s1)
  10:src/KBuffer.cpp ****     spaceAvailable = new Sem(_cap);
  65              		.loc 1 10 5 is_stmt 1
  66              		.loc 1 10 34 is_stmt 0
  67 0060 13058001 		li	a0,24
  68 0064 97000000 		call	_ZN3SemnwEm@plt
  68      E7800000 
  69              	.LVL5:
  70              	.LBB18:
  71              	.LBB19:
  12:src/../h/Sem.h ****         head = tail = 0;
  72              		.loc 2 12 42
  73 006c 23282501 		sw	s2,16(a0)
  74              		.loc 2 13 9 is_stmt 1
  75              		.loc 2 13 21 is_stmt 0
  76 0070 23340500 		sd	zero,8(a0)
  77              		.loc 2 13 14
  78 0074 23300500 		sd	zero,0(a0)
  79              	.LVL6:
  80              	.LBE19:
  81              	.LBE18:
  82              		.loc 1 10 20
  83 0078 23BCA400 		sd	a0,24(s1)
  11:src/KBuffer.cpp ****     mutexHead = new Sem(1);
  84              		.loc 1 11 5 is_stmt 1
  85              		.loc 1 11 26 is_stmt 0
  86 007c 13058001 		li	a0,24
  87 0080 97000000 		call	_ZN3SemnwEm@plt
GAS LISTING /tmp/ccthMRdI.s 			page 3


  87      E7800000 
  88              	.LVL7:
  89              	.LBB20:
  90              	.LBB21:
  12:src/../h/Sem.h ****         head = tail = 0;
  91              		.loc 2 12 42
  92 0088 13091000 		li	s2,1
  93 008c 23282501 		sw	s2,16(a0)
  94              		.loc 2 13 9 is_stmt 1
  95              		.loc 2 13 21 is_stmt 0
  96 0090 23340500 		sd	zero,8(a0)
  97              		.loc 2 13 14
  98 0094 23300500 		sd	zero,0(a0)
  99              	.LVL8:
 100              	.LBE21:
 101              	.LBE20:
 102              		.loc 1 11 15
 103 0098 23B4A402 		sd	a0,40(s1)
  12:src/KBuffer.cpp ****     mutexTail = new Sem(1);
 104              		.loc 1 12 5 is_stmt 1
 105              		.loc 1 12 26 is_stmt 0
 106 009c 13058001 		li	a0,24
 107 00a0 97000000 		call	_ZN3SemnwEm@plt
 107      E7800000 
 108              	.LVL9:
 109              	.LBB22:
 110              	.LBB23:
  12:src/../h/Sem.h ****         head = tail = 0;
 111              		.loc 2 12 42
 112 00a8 23282501 		sw	s2,16(a0)
 113              		.loc 2 13 9 is_stmt 1
 114              		.loc 2 13 21 is_stmt 0
 115 00ac 23340500 		sd	zero,8(a0)
 116              		.loc 2 13 14
 117 00b0 23300500 		sd	zero,0(a0)
 118              	.LVL10:
 119              	.LBE23:
 120              	.LBE22:
 121              		.loc 1 12 15
 122 00b4 23B8A402 		sd	a0,48(s1)
 123              	.LBE15:
  13:src/KBuffer.cpp **** }
 124              		.loc 1 13 1
 125 00b8 83308101 		ld	ra,24(sp)
 126              		.cfi_restore 1
 127 00bc 03340101 		ld	s0,16(sp)
 128              		.cfi_restore 8
 129              		.cfi_def_cfa 2, 32
 130 00c0 83348100 		ld	s1,8(sp)
 131              		.cfi_restore 9
 132              	.LVL11:
 133 00c4 03390100 		ld	s2,0(sp)
 134              		.cfi_restore 18
 135 00c8 13010102 		addi	sp,sp,32
 136              		.cfi_def_cfa_offset 0
 137 00cc 67800000 		jr	ra
 138              		.cfi_endproc
GAS LISTING /tmp/ccthMRdI.s 			page 4


 139              	.LFE36:
 141              		.globl	_ZN7KBufferC1Ei
 142              		.set	_ZN7KBufferC1Ei,_ZN7KBufferC2Ei
 143              		.align	2
 144              		.globl	_ZN7KBuffer3putEi
 146              	_ZN7KBuffer3putEi:
 147              	.LFB38:
  14:src/KBuffer.cpp **** 
  15:src/KBuffer.cpp **** void KBuffer::put(int val) {
 148              		.loc 1 15 28 is_stmt 1
 149              		.cfi_startproc
 150              	.LVL12:
 151 00d0 130101FE 		addi	sp,sp,-32
 152              		.cfi_def_cfa_offset 32
 153 00d4 233C1100 		sd	ra,24(sp)
 154 00d8 23388100 		sd	s0,16(sp)
 155 00dc 23349100 		sd	s1,8(sp)
 156 00e0 23302101 		sd	s2,0(sp)
 157              		.cfi_offset 1, -8
 158              		.cfi_offset 8, -16
 159              		.cfi_offset 9, -24
 160              		.cfi_offset 18, -32
 161 00e4 13040102 		addi	s0,sp,32
 162              		.cfi_def_cfa 8, 0
 163 00e8 93040500 		mv	s1,a0
 164 00ec 13890500 		mv	s2,a1
  16:src/KBuffer.cpp ****     spaceAvailable->wait();
 165              		.loc 1 16 5
 166              		.loc 1 16 25 is_stmt 0
 167 00f0 03358501 		ld	a0,24(a0)
 168              	.LVL13:
 169 00f4 97000000 		call	_ZN3Sem4waitEv@plt
 169      E7800000 
 170              	.LVL14:
  17:src/KBuffer.cpp **** 
  18:src/KBuffer.cpp ****     mutexTail->wait();
 171              		.loc 1 18 5 is_stmt 1
 172              		.loc 1 18 20 is_stmt 0
 173 00fc 03B50403 		ld	a0,48(s1)
 174 0100 97000000 		call	_ZN3Sem4waitEv@plt
 174      E7800000 
 175              	.LVL15:
  19:src/KBuffer.cpp ****     buffer[tail] = val;
 176              		.loc 1 19 5 is_stmt 1
 177 0108 83B78400 		ld	a5,8(s1)
 178              		.loc 1 19 12 is_stmt 0
 179 010c 03A74401 		lw	a4,20(s1)
 180              		.loc 1 19 16
 181 0110 13172700 		slli	a4,a4,2
 182 0114 B387E700 		add	a5,a5,a4
 183              		.loc 1 19 18
 184 0118 23A02701 		sw	s2,0(a5)
  20:src/KBuffer.cpp ****     tail = (tail + 1) % cap;
 185              		.loc 1 20 5 is_stmt 1
 186              		.loc 1 20 13 is_stmt 0
 187 011c 83A74401 		lw	a5,20(s1)
 188              		.loc 1 20 18
GAS LISTING /tmp/ccthMRdI.s 			page 5


 189 0120 9B871700 		addiw	a5,a5,1
 190              		.loc 1 20 25
 191 0124 03A70400 		lw	a4,0(s1)
 192              		.loc 1 20 23
 193 0128 BBE7E702 		remw	a5,a5,a4
 194              		.loc 1 20 10
 195 012c 23AAF400 		sw	a5,20(s1)
  21:src/KBuffer.cpp ****     mutexTail->signal();
 196              		.loc 1 21 5 is_stmt 1
 197              		.loc 1 21 22 is_stmt 0
 198 0130 03B50403 		ld	a0,48(s1)
 199 0134 97000000 		call	_ZN3Sem6signalEv@plt
 199      E7800000 
 200              	.LVL16:
  22:src/KBuffer.cpp **** 
  23:src/KBuffer.cpp ****     itemAvailable->signal();
 201              		.loc 1 23 5 is_stmt 1
 202              		.loc 1 23 26 is_stmt 0
 203 013c 03B50402 		ld	a0,32(s1)
 204 0140 97000000 		call	_ZN3Sem6signalEv@plt
 204      E7800000 
 205              	.LVL17:
  24:src/KBuffer.cpp **** }
 206              		.loc 1 24 1
 207 0148 83308101 		ld	ra,24(sp)
 208              		.cfi_restore 1
 209 014c 03340101 		ld	s0,16(sp)
 210              		.cfi_restore 8
 211              		.cfi_def_cfa 2, 32
 212 0150 83348100 		ld	s1,8(sp)
 213              		.cfi_restore 9
 214              	.LVL18:
 215 0154 03390100 		ld	s2,0(sp)
 216              		.cfi_restore 18
 217 0158 13010102 		addi	sp,sp,32
 218              		.cfi_def_cfa_offset 0
 219 015c 67800000 		jr	ra
 220              		.cfi_endproc
 221              	.LFE38:
 223              		.align	2
 224              		.globl	_ZN7KBuffer3getEv
 226              	_ZN7KBuffer3getEv:
 227              	.LFB39:
  25:src/KBuffer.cpp **** 
  26:src/KBuffer.cpp **** int KBuffer::get() {
 228              		.loc 1 26 20 is_stmt 1
 229              		.cfi_startproc
 230              	.LVL19:
 231 0160 130101FE 		addi	sp,sp,-32
 232              		.cfi_def_cfa_offset 32
 233 0164 233C1100 		sd	ra,24(sp)
 234 0168 23388100 		sd	s0,16(sp)
 235 016c 23349100 		sd	s1,8(sp)
 236 0170 23302101 		sd	s2,0(sp)
 237              		.cfi_offset 1, -8
 238              		.cfi_offset 8, -16
 239              		.cfi_offset 9, -24
GAS LISTING /tmp/ccthMRdI.s 			page 6


 240              		.cfi_offset 18, -32
 241 0174 13040102 		addi	s0,sp,32
 242              		.cfi_def_cfa 8, 0
 243 0178 93040500 		mv	s1,a0
  27:src/KBuffer.cpp ****     itemAvailable->wait();
 244              		.loc 1 27 5
 245              		.loc 1 27 24 is_stmt 0
 246 017c 03350502 		ld	a0,32(a0)
 247              	.LVL20:
 248 0180 97000000 		call	_ZN3Sem4waitEv@plt
 248      E7800000 
 249              	.LVL21:
  28:src/KBuffer.cpp **** 
  29:src/KBuffer.cpp ****     mutexHead->wait();
 250              		.loc 1 29 5 is_stmt 1
 251              		.loc 1 29 20 is_stmt 0
 252 0188 03B58402 		ld	a0,40(s1)
 253 018c 97000000 		call	_ZN3Sem4waitEv@plt
 253      E7800000 
 254              	.LVL22:
  30:src/KBuffer.cpp **** 
  31:src/KBuffer.cpp ****     int ret = buffer[head];
 255              		.loc 1 31 5 is_stmt 1
 256              		.loc 1 31 15 is_stmt 0
 257 0194 03B78400 		ld	a4,8(s1)
 258              		.loc 1 31 22
 259 0198 83A70401 		lw	a5,16(s1)
 260              		.loc 1 31 26
 261 019c 93962700 		slli	a3,a5,2
 262 01a0 3307D700 		add	a4,a4,a3
 263              		.loc 1 31 9
 264 01a4 03290700 		lw	s2,0(a4)
 265              	.LVL23:
  32:src/KBuffer.cpp ****     head = (head + 1) % cap;
 266              		.loc 1 32 5 is_stmt 1
 267              		.loc 1 32 18 is_stmt 0
 268 01a8 9B871700 		addiw	a5,a5,1
 269              		.loc 1 32 25
 270 01ac 03A70400 		lw	a4,0(s1)
 271              		.loc 1 32 23
 272 01b0 BBE7E702 		remw	a5,a5,a4
 273              		.loc 1 32 10
 274 01b4 23A8F400 		sw	a5,16(s1)
  33:src/KBuffer.cpp ****     mutexHead->signal();
 275              		.loc 1 33 5 is_stmt 1
 276              		.loc 1 33 22 is_stmt 0
 277 01b8 03B58402 		ld	a0,40(s1)
 278 01bc 97000000 		call	_ZN3Sem6signalEv@plt
 278      E7800000 
 279              	.LVL24:
  34:src/KBuffer.cpp **** 
  35:src/KBuffer.cpp ****     spaceAvailable->signal();
 280              		.loc 1 35 5 is_stmt 1
 281              		.loc 1 35 27 is_stmt 0
 282 01c4 03B58401 		ld	a0,24(s1)
 283 01c8 97000000 		call	_ZN3Sem6signalEv@plt
 283      E7800000 
GAS LISTING /tmp/ccthMRdI.s 			page 7


 284              	.LVL25:
  36:src/KBuffer.cpp **** 
  37:src/KBuffer.cpp ****     return ret;
 285              		.loc 1 37 5 is_stmt 1
  38:src/KBuffer.cpp **** }
 286              		.loc 1 38 1 is_stmt 0
 287 01d0 13050900 		mv	a0,s2
 288 01d4 83308101 		ld	ra,24(sp)
 289              		.cfi_restore 1
 290 01d8 03340101 		ld	s0,16(sp)
 291              		.cfi_restore 8
 292              		.cfi_def_cfa 2, 32
 293 01dc 83348100 		ld	s1,8(sp)
 294              		.cfi_restore 9
 295              	.LVL26:
 296 01e0 03390100 		ld	s2,0(sp)
 297              		.cfi_restore 18
 298              	.LVL27:
 299 01e4 13010102 		addi	sp,sp,32
 300              		.cfi_def_cfa_offset 0
 301 01e8 67800000 		jr	ra
 302              		.cfi_endproc
 303              	.LFE39:
 305              		.align	2
 306              		.globl	_ZN7KBuffer6getCntEv
 308              	_ZN7KBuffer6getCntEv:
 309              	.LFB40:
  39:src/KBuffer.cpp **** 
  40:src/KBuffer.cpp **** int KBuffer::getCnt() {
 310              		.loc 1 40 23 is_stmt 1
 311              		.cfi_startproc
 312              	.LVL28:
 313 01ec 130101FE 		addi	sp,sp,-32
 314              		.cfi_def_cfa_offset 32
 315 01f0 233C1100 		sd	ra,24(sp)
 316 01f4 23388100 		sd	s0,16(sp)
 317 01f8 23349100 		sd	s1,8(sp)
 318 01fc 23302101 		sd	s2,0(sp)
 319              		.cfi_offset 1, -8
 320              		.cfi_offset 8, -16
 321              		.cfi_offset 9, -24
 322              		.cfi_offset 18, -32
 323 0200 13040102 		addi	s0,sp,32
 324              		.cfi_def_cfa 8, 0
 325 0204 93040500 		mv	s1,a0
  41:src/KBuffer.cpp ****     int ret;
 326              		.loc 1 41 5
  42:src/KBuffer.cpp **** 
  43:src/KBuffer.cpp ****     mutexHead->wait();
 327              		.loc 1 43 5
 328              		.loc 1 43 20 is_stmt 0
 329 0208 03358502 		ld	a0,40(a0)
 330              	.LVL29:
 331 020c 97000000 		call	_ZN3Sem4waitEv@plt
 331      E7800000 
 332              	.LVL30:
  44:src/KBuffer.cpp ****     mutexTail->wait();
GAS LISTING /tmp/ccthMRdI.s 			page 8


 333              		.loc 1 44 5 is_stmt 1
 334              		.loc 1 44 20 is_stmt 0
 335 0214 03B50403 		ld	a0,48(s1)
 336 0218 97000000 		call	_ZN3Sem4waitEv@plt
 336      E7800000 
 337              	.LVL31:
  45:src/KBuffer.cpp **** 
  46:src/KBuffer.cpp ****     if (tail >= head) {
 338              		.loc 1 46 5 is_stmt 1
 339              		.loc 1 46 9 is_stmt 0
 340 0220 83A74401 		lw	a5,20(s1)
 341              		.loc 1 46 17
 342 0224 03A90401 		lw	s2,16(s1)
 343              		.loc 1 46 5
 344 0228 63CE2703 		blt	a5,s2,.L8
  47:src/KBuffer.cpp ****         ret = tail - head;
 345              		.loc 1 47 9 is_stmt 1
 346              		.loc 1 47 13 is_stmt 0
 347 022c 3B892741 		subw	s2,a5,s2
 348              	.LVL32:
 349              	.L9:
  48:src/KBuffer.cpp ****     } else {
  49:src/KBuffer.cpp ****         ret = cap - head + tail;
  50:src/KBuffer.cpp ****     }
  51:src/KBuffer.cpp **** 
  52:src/KBuffer.cpp ****     mutexTail->signal();
 350              		.loc 1 52 5 is_stmt 1
 351              		.loc 1 52 22 is_stmt 0
 352 0230 03B50403 		ld	a0,48(s1)
 353 0234 97000000 		call	_ZN3Sem6signalEv@plt
 353      E7800000 
 354              	.LVL33:
  53:src/KBuffer.cpp ****     mutexHead->signal();
 355              		.loc 1 53 5 is_stmt 1
 356              		.loc 1 53 22 is_stmt 0
 357 023c 03B58402 		ld	a0,40(s1)
 358 0240 97000000 		call	_ZN3Sem6signalEv@plt
 358      E7800000 
 359              	.LVL34:
  54:src/KBuffer.cpp **** 
  55:src/KBuffer.cpp ****     return ret;
 360              		.loc 1 55 5 is_stmt 1
  56:src/KBuffer.cpp **** }
 361              		.loc 1 56 1 is_stmt 0
 362 0248 13050900 		mv	a0,s2
 363 024c 83308101 		ld	ra,24(sp)
 364              		.cfi_remember_state
 365              		.cfi_restore 1
 366 0250 03340101 		ld	s0,16(sp)
 367              		.cfi_restore 8
 368              		.cfi_def_cfa 2, 32
 369 0254 83348100 		ld	s1,8(sp)
 370              		.cfi_restore 9
 371              	.LVL35:
 372 0258 03390100 		ld	s2,0(sp)
 373              		.cfi_restore 18
 374              	.LVL36:
GAS LISTING /tmp/ccthMRdI.s 			page 9


 375 025c 13010102 		addi	sp,sp,32
 376              		.cfi_def_cfa_offset 0
 377 0260 67800000 		jr	ra
 378              	.LVL37:
 379              	.L8:
 380              		.cfi_restore_state
  49:src/KBuffer.cpp ****     }
 381              		.loc 1 49 9 is_stmt 1
  49:src/KBuffer.cpp ****     }
 382              		.loc 1 49 15 is_stmt 0
 383 0264 03A70400 		lw	a4,0(s1)
  49:src/KBuffer.cpp ****     }
 384              		.loc 1 49 19
 385 0268 3B092741 		subw	s2,a4,s2
  49:src/KBuffer.cpp ****     }
 386              		.loc 1 49 13
 387 026c 3B09F900 		addw	s2,s2,a5
 388 0270 6FF01FFC 		j	.L9
 389              		.cfi_endproc
 390              	.LFE40:
 392              		.align	2
 393              		.globl	_ZN7KBuffer7isEmptyEv
 395              	_ZN7KBuffer7isEmptyEv:
 396              	.LFB41:
  57:src/KBuffer.cpp **** 
  58:src/KBuffer.cpp **** bool KBuffer::isEmpty() {
 397              		.loc 1 58 25 is_stmt 1
 398              		.cfi_startproc
 399              	.LVL38:
 400 0274 130101FF 		addi	sp,sp,-16
 401              		.cfi_def_cfa_offset 16
 402 0278 23341100 		sd	ra,8(sp)
 403 027c 23308100 		sd	s0,0(sp)
 404              		.cfi_offset 1, -8
 405              		.cfi_offset 8, -16
 406 0280 13040101 		addi	s0,sp,16
 407              		.cfi_def_cfa 8, 0
  59:src/KBuffer.cpp ****     return getCnt() == 0;
 408              		.loc 1 59 5
 409              		.loc 1 59 18 is_stmt 0
 410 0284 97000000 		call	_ZN7KBuffer6getCntEv
 410      E7800000 
 411              	.LVL39:
  60:src/KBuffer.cpp **** }
 412              		.loc 1 60 1
 413 028c 13351500 		seqz	a0,a0
 414 0290 83308100 		ld	ra,8(sp)
 415              		.cfi_restore 1
 416 0294 03340100 		ld	s0,0(sp)
 417              		.cfi_restore 8
 418              		.cfi_def_cfa 2, 16
 419 0298 13010101 		addi	sp,sp,16
 420              		.cfi_def_cfa_offset 0
 421 029c 67800000 		jr	ra
 422              		.cfi_endproc
 423              	.LFE41:
 425              		.align	2
GAS LISTING /tmp/ccthMRdI.s 			page 10


 426              		.globl	_ZN7KBuffer6isFullEv
 428              	_ZN7KBuffer6isFullEv:
 429              	.LFB42:
  61:src/KBuffer.cpp **** 
  62:src/KBuffer.cpp **** bool KBuffer::isFull() {
 430              		.loc 1 62 24 is_stmt 1
 431              		.cfi_startproc
 432              	.LVL40:
 433 02a0 130101FE 		addi	sp,sp,-32
 434              		.cfi_def_cfa_offset 32
 435 02a4 233C1100 		sd	ra,24(sp)
 436 02a8 23388100 		sd	s0,16(sp)
 437 02ac 23349100 		sd	s1,8(sp)
 438              		.cfi_offset 1, -8
 439              		.cfi_offset 8, -16
 440              		.cfi_offset 9, -24
 441 02b0 13040102 		addi	s0,sp,32
 442              		.cfi_def_cfa 8, 0
 443 02b4 93040500 		mv	s1,a0
  63:src/KBuffer.cpp ****     return getCnt() == cap-1;
 444              		.loc 1 63 5
 445              		.loc 1 63 18 is_stmt 0
 446 02b8 97000000 		call	_ZN7KBuffer6getCntEv
 446      E7800000 
 447              	.LVL41:
 448              		.loc 1 63 24
 449 02c0 83A70400 		lw	a5,0(s1)
 450              		.loc 1 63 27
 451 02c4 9B87F7FF 		addiw	a5,a5,-1
 452              		.loc 1 63 28
 453 02c8 3385A740 		sub	a0,a5,a0
  64:src/KBuffer.cpp **** }
 454              		.loc 1 64 1
 455 02cc 13351500 		seqz	a0,a0
 456 02d0 83308101 		ld	ra,24(sp)
 457              		.cfi_restore 1
 458 02d4 03340101 		ld	s0,16(sp)
 459              		.cfi_restore 8
 460              		.cfi_def_cfa 2, 32
 461 02d8 83348100 		ld	s1,8(sp)
 462              		.cfi_restore 9
 463              	.LVL42:
 464 02dc 13010102 		addi	sp,sp,32
 465              		.cfi_def_cfa_offset 0
 466 02e0 67800000 		jr	ra
 467              		.cfi_endproc
 468              	.LFE42:
 470              		.align	2
 471              		.globl	_ZN7KBufferD2Ev
 473              	_ZN7KBufferD2Ev:
 474              	.LFB44:
  65:src/KBuffer.cpp **** 
  66:src/KBuffer.cpp **** KBuffer::~KBuffer() {
 475              		.loc 1 66 1 is_stmt 1
 476              		.cfi_startproc
 477              		.cfi_personality 0x9b,DW.ref.__gxx_personality_v0
 478              		.cfi_lsda 0x1b,.LLSDA44
GAS LISTING /tmp/ccthMRdI.s 			page 11


 479              	.LVL43:
 480 02e4 130101FE 		addi	sp,sp,-32
 481              		.cfi_def_cfa_offset 32
 482 02e8 233C1100 		sd	ra,24(sp)
 483 02ec 23388100 		sd	s0,16(sp)
 484 02f0 23349100 		sd	s1,8(sp)
 485 02f4 23302101 		sd	s2,0(sp)
 486              		.cfi_offset 1, -8
 487              		.cfi_offset 8, -16
 488              		.cfi_offset 9, -24
 489              		.cfi_offset 18, -32
 490 02f8 13040102 		addi	s0,sp,32
 491              		.cfi_def_cfa 8, 0
 492 02fc 93040500 		mv	s1,a0
 493              	.LBB24:
  67:src/KBuffer.cpp ****     delete spaceAvailable;
 494              		.loc 1 67 5
 495              		.loc 1 67 12 is_stmt 0
 496 0300 03398501 		ld	s2,24(a0)
 497              		.loc 1 67 26
 498 0304 630E0900 		beqz	s2,.L16
 499              		.loc 1 67 12 discriminator 1
 500 0308 13050900 		mv	a0,s2
 501              	.LVL44:
 502 030c 97000000 		call	_ZN3SemD1Ev@plt
 502      E7800000 
 503              	.LVL45:
 504 0314 13050900 		mv	a0,s2
 505 0318 97000000 		call	_ZN3SemdlEPv@plt
 505      E7800000 
 506              	.LVL46:
 507              	.L16:
  68:src/KBuffer.cpp ****     delete itemAvailable;
 508              		.loc 1 68 5 is_stmt 1
 509              		.loc 1 68 12 is_stmt 0
 510 0320 03B90402 		ld	s2,32(s1)
 511              		.loc 1 68 25
 512 0324 630E0900 		beqz	s2,.L17
 513              		.loc 1 68 12 discriminator 1
 514 0328 13050900 		mv	a0,s2
 515 032c 97000000 		call	_ZN3SemD1Ev@plt
 515      E7800000 
 516              	.LVL47:
 517 0334 13050900 		mv	a0,s2
 518 0338 97000000 		call	_ZN3SemdlEPv@plt
 518      E7800000 
 519              	.LVL48:
 520              	.L17:
  69:src/KBuffer.cpp ****     delete mutexHead;
 521              		.loc 1 69 5 is_stmt 1
 522              		.loc 1 69 12 is_stmt 0
 523 0340 03B98402 		ld	s2,40(s1)
 524              		.loc 1 69 21
 525 0344 630E0900 		beqz	s2,.L18
 526              		.loc 1 69 12 discriminator 1
 527 0348 13050900 		mv	a0,s2
 528 034c 97000000 		call	_ZN3SemD1Ev@plt
GAS LISTING /tmp/ccthMRdI.s 			page 12


 528      E7800000 
 529              	.LVL49:
 530 0354 13050900 		mv	a0,s2
 531 0358 97000000 		call	_ZN3SemdlEPv@plt
 531      E7800000 
 532              	.LVL50:
 533              	.L18:
  70:src/KBuffer.cpp ****     delete mutexTail;
 534              		.loc 1 70 5 is_stmt 1
 535              		.loc 1 70 12 is_stmt 0
 536 0360 83B40403 		ld	s1,48(s1)
 537              	.LVL51:
 538              		.loc 1 70 21
 539 0364 638E0400 		beqz	s1,.L15
 540              		.loc 1 70 12 discriminator 1
 541 0368 13850400 		mv	a0,s1
 542 036c 97000000 		call	_ZN3SemD1Ev@plt
 542      E7800000 
 543              	.LVL52:
 544 0374 13850400 		mv	a0,s1
 545 0378 97000000 		call	_ZN3SemdlEPv@plt
 545      E7800000 
 546              	.LVL53:
 547              	.L15:
 548              	.LBE24:
  71:src/KBuffer.cpp **** }
 549              		.loc 1 71 1
 550 0380 83308101 		ld	ra,24(sp)
 551              		.cfi_restore 1
 552 0384 03340101 		ld	s0,16(sp)
 553              		.cfi_restore 8
 554              		.cfi_def_cfa 2, 32
 555 0388 83348100 		ld	s1,8(sp)
 556              		.cfi_restore 9
 557 038c 03390100 		ld	s2,0(sp)
 558              		.cfi_restore 18
 559 0390 13010102 		addi	sp,sp,32
 560              		.cfi_def_cfa_offset 0
 561 0394 67800000 		jr	ra
 562              		.cfi_endproc
 563              	.LFE44:
 564              		.globl	__gxx_personality_v0
 565              		.section	.gcc_except_table,"a",@progbits
 566              	.LLSDA44:
 567 0000 FF       		.byte	0xff
 568 0001 FF       		.byte	0xff
 569 0002 03       		.byte	0x3
 570 0003 00       		.byte	0
 571              		.text
 573              		.globl	_ZN7KBufferD1Ev
 574              		.set	_ZN7KBufferD1Ev,_ZN7KBufferD2Ev
 575              		.align	2
 576              		.globl	_ZN7KBuffernwEm
 578              	_ZN7KBuffernwEm:
 579              	.LFB46:
  72:src/KBuffer.cpp **** 
  73:src/KBuffer.cpp **** void *KBuffer::operator new(size_t size) {
GAS LISTING /tmp/ccthMRdI.s 			page 13


 580              		.loc 1 73 42 is_stmt 1
 581              		.cfi_startproc
 582              	.LVL54:
 583 0398 130101FF 		addi	sp,sp,-16
 584              		.cfi_def_cfa_offset 16
 585 039c 23341100 		sd	ra,8(sp)
 586 03a0 23308100 		sd	s0,0(sp)
 587              		.cfi_offset 1, -8
 588              		.cfi_offset 8, -16
 589 03a4 13040101 		addi	s0,sp,16
 590              		.cfi_def_cfa 8, 0
  74:src/KBuffer.cpp ****     return MemoryAllocator::mem_alloc(size);
 591              		.loc 1 74 5
 592              		.loc 1 74 38 is_stmt 0
 593 03a8 97000000 		call	_ZN15MemoryAllocator9mem_allocEm@plt
 593      E7800000 
 594              	.LVL55:
  75:src/KBuffer.cpp **** }
 595              		.loc 1 75 1
 596 03b0 83308100 		ld	ra,8(sp)
 597              		.cfi_restore 1
 598 03b4 03340100 		ld	s0,0(sp)
 599              		.cfi_restore 8
 600              		.cfi_def_cfa 2, 16
 601 03b8 13010101 		addi	sp,sp,16
 602              		.cfi_def_cfa_offset 0
 603 03bc 67800000 		jr	ra
 604              		.cfi_endproc
 605              	.LFE46:
 607              		.align	2
 608              		.globl	_ZN7KBufferdlEPv
 610              	_ZN7KBufferdlEPv:
 611              	.LFB47:
  76:src/KBuffer.cpp **** 
  77:src/KBuffer.cpp **** void KBuffer::operator delete(void *ptr) {
 612              		.loc 1 77 42 is_stmt 1
 613              		.cfi_startproc
 614              	.LVL56:
 615 03c0 130101FF 		addi	sp,sp,-16
 616              		.cfi_def_cfa_offset 16
 617 03c4 23341100 		sd	ra,8(sp)
 618 03c8 23308100 		sd	s0,0(sp)
 619              		.cfi_offset 1, -8
 620              		.cfi_offset 8, -16
 621 03cc 13040101 		addi	s0,sp,16
 622              		.cfi_def_cfa 8, 0
  78:src/KBuffer.cpp ****     MemoryAllocator::mem_free(ptr);
 623              		.loc 1 78 5
 624              		.loc 1 78 30 is_stmt 0
 625 03d0 97000000 		call	_ZN15MemoryAllocator8mem_freeEPv@plt
 625      E7800000 
 626              	.LVL57:
  79:src/KBuffer.cpp **** }
 627              		.loc 1 79 1
 628 03d8 83308100 		ld	ra,8(sp)
 629              		.cfi_restore 1
 630 03dc 03340100 		ld	s0,0(sp)
GAS LISTING /tmp/ccthMRdI.s 			page 14


 631              		.cfi_restore 8
 632              		.cfi_def_cfa 2, 16
 633 03e0 13010101 		addi	sp,sp,16
 634              		.cfi_def_cfa_offset 0
 635 03e4 67800000 		jr	ra
 636              		.cfi_endproc
 637              	.LFE47:
 639              	.Letext0:
 640              		.file 3 "src/../h/../lib/hw.h"
 641              		.file 4 "src/../h/MemoryAllocator.h"
 642              		.file 5 "src/../h/TCB.h"
 643              		.file 6 "src/../h/KBuffer.h"
 644              		.file 7 "src/../h/syscall_c.hpp"
 3864              		.align	3
 3867              	DW.ref.__gxx_personality_v0:
 3868 0000 00000000 		.dword	__gxx_personality_v0
 3868      00000000 
 3869              		.ident	"GCC: (Ubuntu 9.4.0-1ubuntu1~20.04) 9.4.0"
 3870              		.section	.note.GNU-stack,"",@progbits
GAS LISTING /tmp/ccthMRdI.s 			page 15

