GAS LISTING /tmp/ccMUV9Rt.s 			page 1


   1              		.file	"KConsole.cpp"
   2              		.option pic
   3              		.option norelax
   4              		.text
   5              	.Ltext0:
   6              		.align	2
   7              		.globl	_ZN8KConsole7putcharEc
   9              	_ZN8KConsole7putcharEc:
  10              	.LFB35:
  11              		.file 1 "src/KConsole.cpp"
   1:src/KConsole.cpp **** //
   2:src/KConsole.cpp **** // Created by os on 8/14/23.
   3:src/KConsole.cpp **** //
   4:src/KConsole.cpp **** 
   5:src/KConsole.cpp **** #include "../h/KConsole.h"
   6:src/KConsole.cpp **** 
   7:src/KConsole.cpp **** KBuffer* KConsole::inputBuffer = nullptr;
   8:src/KConsole.cpp **** KBuffer* KConsole::outputBuffer = nullptr;
   9:src/KConsole.cpp **** 
  10:src/KConsole.cpp **** void KConsole::putchar(char c) {
  12              		.loc 1 10 32
  13              		.cfi_startproc
  14              	.LVL0:
  15 0000 130101FF 		addi	sp,sp,-16
  16              		.cfi_def_cfa_offset 16
  17 0004 23341100 		sd	ra,8(sp)
  18 0008 23308100 		sd	s0,0(sp)
  19              		.cfi_offset 1, -8
  20              		.cfi_offset 8, -16
  21 000c 13040101 		addi	s0,sp,16
  22              		.cfi_def_cfa 8, 0
  23 0010 93050500 		mv	a1,a0
  11:src/KConsole.cpp ****     inputBuffer->put(c);
  24              		.loc 1 11 5
  25              		.loc 1 11 21 is_stmt 0
  26 0014 17050000 		ld	a0,.LANCHOR0
  26      03350500 
  27              	.LVL1:
  28 001c 97000000 		call	_ZN7KBuffer3putEi@plt
  28      E7800000 
  29              	.LVL2:
  30              	.L3:
  12:src/KConsole.cpp ****     while(((*(char*) CONSOLE_STATUS) & 0x20) && !KConsole::inputBuffer->isEmpty()){
  31              		.loc 1 12 5 is_stmt 1
  32              		.loc 1 12 46
  33              		.loc 1 12 13 is_stmt 0
  34 0024 97070000 		la	a5,CONSOLE_STATUS
  34      83B70700 
  35 002c 83B70700 		ld	a5,0(a5)
  36 0030 83C70700 		lbu	a5,0(a5)
  37              		.loc 1 12 46
  38 0034 93F70702 		andi	a5,a5,32
  39 0038 638E0702 		beqz	a5,.L1
  40              		.loc 1 12 80 discriminator 1
  41 003c 17050000 		ld	a0,.LANCHOR0
  41      03350500 
  42 0044 97000000 		call	_ZN7KBuffer7isEmptyEv@plt
GAS LISTING /tmp/ccMUV9Rt.s 			page 2


  42      E7800000 
  43              	.LVL3:
  44              		.loc 1 12 46 discriminator 1
  45 004c 63140502 		bnez	a0,.L1
  13:src/KConsole.cpp ****         (*(char*) CONSOLE_TX_DATA) = KConsole::inputBuffer->get();
  46              		.loc 1 13 9 is_stmt 1
  47              		.loc 1 13 64 is_stmt 0
  48 0050 17050000 		ld	a0,.LANCHOR0
  48      03350500 
  49 0058 97000000 		call	_ZN7KBuffer3getEv@plt
  49      E7800000 
  50              	.LVL4:
  51              		.loc 1 13 10
  52 0060 97070000 		la	a5,CONSOLE_TX_DATA
  52      83B70700 
  53 0068 83B70700 		ld	a5,0(a5)
  54              		.loc 1 13 36
  55 006c 2380A700 		sb	a0,0(a5)
  12:src/KConsole.cpp ****     while(((*(char*) CONSOLE_STATUS) & 0x20) && !KConsole::inputBuffer->isEmpty()){
  56              		.loc 1 12 5
  57 0070 6FF05FFB 		j	.L3
  58              	.L1:
  14:src/KConsole.cpp ****     }
  15:src/KConsole.cpp **** }
  59              		.loc 1 15 1
  60 0074 83308100 		ld	ra,8(sp)
  61              		.cfi_restore 1
  62 0078 03340100 		ld	s0,0(sp)
  63              		.cfi_restore 8
  64              		.cfi_def_cfa 2, 16
  65 007c 13010101 		addi	sp,sp,16
  66              		.cfi_def_cfa_offset 0
  67 0080 67800000 		jr	ra
  68              		.cfi_endproc
  69              	.LFE35:
  71              		.align	2
  72              		.globl	_ZN8KConsole7getcharEv
  74              	_ZN8KConsole7getcharEv:
  75              	.LFB36:
  16:src/KConsole.cpp **** 
  17:src/KConsole.cpp **** char KConsole::getchar() {
  76              		.loc 1 17 26 is_stmt 1
  77              		.cfi_startproc
  78 0084 130101FF 		addi	sp,sp,-16
  79              		.cfi_def_cfa_offset 16
  80 0088 23341100 		sd	ra,8(sp)
  81 008c 23308100 		sd	s0,0(sp)
  82              		.cfi_offset 1, -8
  83              		.cfi_offset 8, -16
  84 0090 13040101 		addi	s0,sp,16
  85              		.cfi_def_cfa 8, 0
  18:src/KConsole.cpp ****     return outputBuffer->get();
  86              		.loc 1 18 5
  87              		.loc 1 18 29 is_stmt 0
  88 0094 17050000 		ld	a0,.LANCHOR0+8
  88      03350500 
  89 009c 97000000 		call	_ZN7KBuffer3getEv@plt
GAS LISTING /tmp/ccMUV9Rt.s 			page 3


  89      E7800000 
  90              	.LVL5:
  19:src/KConsole.cpp **** }
  91              		.loc 1 19 1
  92 00a4 1375F50F 		andi	a0,a0,0xff
  93 00a8 83308100 		ld	ra,8(sp)
  94              		.cfi_restore 1
  95 00ac 03340100 		ld	s0,0(sp)
  96              		.cfi_restore 8
  97              		.cfi_def_cfa 2, 16
  98 00b0 13010101 		addi	sp,sp,16
  99              		.cfi_def_cfa_offset 0
 100 00b4 67800000 		jr	ra
 101              		.cfi_endproc
 102              	.LFE36:
 104              		.align	2
 105              		.globl	_ZN8KConsole4initEv
 107              	_ZN8KConsole4initEv:
 108              	.LFB37:
  20:src/KConsole.cpp **** 
  21:src/KConsole.cpp **** void KConsole::init() {
 109              		.loc 1 21 23 is_stmt 1
 110              		.cfi_startproc
 111              		.cfi_personality 0x9b,DW.ref.__gxx_personality_v0
 112              		.cfi_lsda 0x1b,.LLSDA37
 113 00b8 130101FE 		addi	sp,sp,-32
 114              		.cfi_def_cfa_offset 32
 115 00bc 233C1100 		sd	ra,24(sp)
 116 00c0 23388100 		sd	s0,16(sp)
 117 00c4 23349100 		sd	s1,8(sp)
 118 00c8 23302101 		sd	s2,0(sp)
 119              		.cfi_offset 1, -8
 120              		.cfi_offset 8, -16
 121              		.cfi_offset 9, -24
 122              		.cfi_offset 18, -32
 123 00cc 13040102 		addi	s0,sp,32
 124              		.cfi_def_cfa 8, 0
  22:src/KConsole.cpp ****     inputBuffer = new KBuffer(1000);
 125              		.loc 1 22 5
 126              		.loc 1 22 35 is_stmt 0
 127 00d0 13058003 		li	a0,56
 128              	.LEHB0:
 129 00d4 97000000 		call	_ZN7KBuffernwEm@plt
 129      E7800000 
 130              	.LVL6:
 131              	.LEHE0:
 132 00dc 93040500 		mv	s1,a0
 133 00e0 9305803E 		li	a1,1000
 134              	.LEHB1:
 135 00e4 97000000 		call	_ZN7KBufferC1Ei@plt
 135      E7800000 
 136              	.LVL7:
 137              	.LEHE1:
 138              		.loc 1 22 17 discriminator 2
 139 00ec 97070000 		sd	s1,.LANCHOR0,a5
 139      23B09700 
  23:src/KConsole.cpp ****     outputBuffer = new KBuffer(1000);
GAS LISTING /tmp/ccMUV9Rt.s 			page 4


 140              		.loc 1 23 5 is_stmt 1 discriminator 2
 141              		.loc 1 23 36 is_stmt 0 discriminator 2
 142 00f4 13058003 		li	a0,56
 143              	.LEHB2:
 144 00f8 97000000 		call	_ZN7KBuffernwEm@plt
 144      E7800000 
 145              	.LVL8:
 146              	.LEHE2:
 147 0100 93040500 		mv	s1,a0
 148 0104 9305803E 		li	a1,1000
 149              	.LEHB3:
 150 0108 97000000 		call	_ZN7KBufferC1Ei@plt
 150      E7800000 
 151              	.LVL9:
 152              	.LEHE3:
 153              		.loc 1 23 18 discriminator 2
 154 0110 97070000 		sd	s1,.LANCHOR0+8,a5
 154      23B09700 
  24:src/KConsole.cpp **** }
 155              		.loc 1 24 1 discriminator 2
 156 0118 83308101 		ld	ra,24(sp)
 157              		.cfi_remember_state
 158              		.cfi_restore 1
 159 011c 03340101 		ld	s0,16(sp)
 160              		.cfi_restore 8
 161              		.cfi_def_cfa 2, 32
 162 0120 83348100 		ld	s1,8(sp)
 163              		.cfi_restore 9
 164 0124 03390100 		ld	s2,0(sp)
 165              		.cfi_restore 18
 166 0128 13010102 		addi	sp,sp,32
 167              		.cfi_def_cfa_offset 0
 168 012c 67800000 		jr	ra
 169              	.L10:
 170              		.cfi_restore_state
 171 0130 13090500 		mv	s2,a0
  22:src/KConsole.cpp ****     inputBuffer = new KBuffer(1000);
 172              		.loc 1 22 35
 173 0134 13850400 		mv	a0,s1
 174 0138 97000000 		call	_ZN7KBufferdlEPv@plt
 174      E7800000 
 175              	.LVL10:
 176 0140 13050900 		mv	a0,s2
 177              	.LEHB4:
 178 0144 97000000 		call	_Unwind_Resume@plt
 178      E7800000 
 179              	.LVL11:
 180              	.LEHE4:
 181              	.L11:
 182 014c 13090500 		mv	s2,a0
  23:src/KConsole.cpp ****     outputBuffer = new KBuffer(1000);
 183              		.loc 1 23 36
 184 0150 13850400 		mv	a0,s1
 185 0154 97000000 		call	_ZN7KBufferdlEPv@plt
 185      E7800000 
 186              	.LVL12:
 187 015c 13050900 		mv	a0,s2
GAS LISTING /tmp/ccMUV9Rt.s 			page 5


 188              	.LEHB5:
 189 0160 97000000 		call	_Unwind_Resume@plt
 189      E7800000 
 190              	.LVL13:
 191              	.LEHE5:
 192              		.cfi_endproc
 193              	.LFE37:
 194              		.globl	__gxx_personality_v0
 195              		.section	.gcc_except_table,"a",@progbits
 196              	.LLSDA37:
 197 0000 FF       		.byte	0xff
 198 0001 FF       		.byte	0xff
 199 0002 03       		.byte	0x3
 200 0003 4E       		.byte	0x4e
 201 0004 00000000 		.4byte	.LEHB0-.LFB37
 202 0008 00000000 		.4byte	.LEHE0-.LEHB0
 203 000c 00000000 		.4byte	0
 204 0010 00       		.byte	0
 205 0011 00000000 		.4byte	.LEHB1-.LFB37
 206 0015 00000000 		.4byte	.LEHE1-.LEHB1
 207 0019 00000000 		.4byte	.L10-.LFB37
 208 001d 00       		.byte	0
 209 001e 00000000 		.4byte	.LEHB2-.LFB37
 210 0022 00000000 		.4byte	.LEHE2-.LEHB2
 211 0026 00000000 		.4byte	0
 212 002a 00       		.byte	0
 213 002b 00000000 		.4byte	.LEHB3-.LFB37
 214 002f 00000000 		.4byte	.LEHE3-.LEHB3
 215 0033 00000000 		.4byte	.L11-.LFB37
 216 0037 00       		.byte	0
 217 0038 00000000 		.4byte	.LEHB4-.LFB37
 218 003c 00000000 		.4byte	.LEHE4-.LEHB4
 219 0040 00000000 		.4byte	0
 220 0044 00       		.byte	0
 221 0045 00000000 		.4byte	.LEHB5-.LFB37
 222 0049 00000000 		.4byte	.LEHE5-.LEHB5
 223 004d 00000000 		.4byte	0
 224 0051 00       		.byte	0
 225              		.text
 227              		.globl	_ZN8KConsole12outputBufferE
 228              		.globl	_ZN8KConsole11inputBufferE
 229              		.bss
 230              		.align	3
 231              		.set	.LANCHOR0,. + 0
 234              	_ZN8KConsole11inputBufferE:
 235 0000 00000000 		.zero	8
 235      00000000 
 238              	_ZN8KConsole12outputBufferE:
 239 0008 00000000 		.zero	8
 239      00000000 
 240              		.text
 241              	.Letext0:
 242              		.file 2 "src/../h/../lib/hw.h"
 243              		.file 3 "src/../h/TCB.h"
 244              		.file 4 "src/../h/Sem.h"
 245              		.file 5 "src/../h/KBuffer.h"
 246              		.file 6 "src/../h/KConsole.h"
GAS LISTING /tmp/ccMUV9Rt.s 			page 6


 247              		.file 7 "src/../h/syscall_c.hpp"
 2711              		.align	3
 2714              	DW.ref.__gxx_personality_v0:
 2715 0000 00000000 		.dword	__gxx_personality_v0
 2715      00000000 
 2716              		.ident	"GCC: (Ubuntu 9.4.0-1ubuntu1~20.04) 9.4.0"
 2717              		.section	.note.GNU-stack,"",@progbits
GAS LISTING /tmp/ccMUV9Rt.s 			page 7

