GAS LISTING /tmp/ccoMjKN7.s 			page 1


   1              		.file	"main.cpp"
   2              		.option pic
   3              		.option norelax
   4              		.text
   5              	.Ltext0:
   6              		.align	2
   7              		.globl	_Z11mainWrapperPv
   9              	_Z11mainWrapperPv:
  10              	.LFB35:
  11              		.file 1 "src/main.cpp"
   1:src/main.cpp  **** //
   2:src/main.cpp  **** // Created by os on 6/2/23.
   3:src/main.cpp  **** //
   4:src/main.cpp  **** 
   5:src/main.cpp  **** #include "../h/Riscv.h"
   6:src/main.cpp  **** #include "../h/syscall_c.hpp"
   7:src/main.cpp  **** #include "../h/KConsole.h"
   8:src/main.cpp  **** 
   9:src/main.cpp  **** extern "C" void SuperVisorTrap();
  10:src/main.cpp  **** void userMain();
  11:src/main.cpp  **** 
  12:src/main.cpp  **** void mainWrapper(void*){
  12              		.loc 1 12 24
  13              		.cfi_startproc
  14 0000 130101FF 		addi	sp,sp,-16
  15              		.cfi_def_cfa_offset 16
  16 0004 23341100 		sd	ra,8(sp)
  17 0008 23308100 		sd	s0,0(sp)
  18              		.cfi_offset 1, -8
  19              		.cfi_offset 8, -16
  20 000c 13040101 		addi	s0,sp,16
  21              		.cfi_def_cfa 8, 0
  13:src/main.cpp  ****     userMain();
  22              		.loc 1 13 5
  23              		.loc 1 13 13 is_stmt 0
  24 0010 97000000 		call	_Z8userMainv@plt
  24      E7800000 
  25              	.LVL0:
  14:src/main.cpp  **** }
  26              		.loc 1 14 1
  27 0018 83308100 		ld	ra,8(sp)
  28              		.cfi_restore 1
  29 001c 03340100 		ld	s0,0(sp)
  30              		.cfi_restore 8
  31              		.cfi_def_cfa 2, 16
  32 0020 13010101 		addi	sp,sp,16
  33              		.cfi_def_cfa_offset 0
  34 0024 67800000 		jr	ra
  35              		.cfi_endproc
  36              	.LFE35:
  38              		.align	2
  39              		.globl	main
  41              	main:
  42              	.LFB36:
  15:src/main.cpp  **** 
  16:src/main.cpp  **** int main(){
  43              		.loc 1 16 11 is_stmt 1
GAS LISTING /tmp/ccoMjKN7.s 			page 2


  44              		.cfi_startproc
  45 0028 130101FE 		addi	sp,sp,-32
  46              		.cfi_def_cfa_offset 32
  47 002c 233C1100 		sd	ra,24(sp)
  48 0030 23388100 		sd	s0,16(sp)
  49              		.cfi_offset 1, -8
  50              		.cfi_offset 8, -16
  51 0034 13040102 		addi	s0,sp,32
  52              		.cfi_def_cfa 8, 0
  17:src/main.cpp  **** 
  18:src/main.cpp  ****     Riscv::w_stvec((uint64)SuperVisorTrap | 1);
  53              		.loc 1 18 5
  54              		.loc 1 18 19 is_stmt 0
  55 0038 97070000 		la	a5,SuperVisorTrap
  55      83B70700 
  56 0040 93E71700 		ori	a5,a5,1
  57              	.LVL1:
  58              	.LBB4:
  59              	.LBB5:
  60              		.file 2 "src/../h/Riscv.h"
   1:src/../h/Riscv.h **** //
   2:src/../h/Riscv.h **** // Created by os on 6/30/23.
   3:src/../h/Riscv.h **** //
   4:src/../h/Riscv.h **** 
   5:src/../h/Riscv.h **** #ifndef PROJECT_BASE_RISCV_H
   6:src/../h/Riscv.h **** #define PROJECT_BASE_RISCV_H
   7:src/../h/Riscv.h **** 
   8:src/../h/Riscv.h **** #include "MemoryAllocator.h"
   9:src/../h/Riscv.h **** #include "TCB.h"
  10:src/../h/Riscv.h **** #include "Sem.h"
  11:src/../h/Riscv.h **** #include "TimerSleep.h"
  12:src/../h/Riscv.h **** #include "KConsole.h"
  13:src/../h/Riscv.h **** 
  14:src/../h/Riscv.h **** class Riscv{
  15:src/../h/Riscv.h **** private:
  16:src/../h/Riscv.h **** 
  17:src/../h/Riscv.h ****     static void interruptHandler();
  18:src/../h/Riscv.h **** 
  19:src/../h/Riscv.h ****     static void timerHandler();
  20:src/../h/Riscv.h **** 
  21:src/../h/Riscv.h ****     static void consoleHandler();
  22:src/../h/Riscv.h **** 
  23:src/../h/Riscv.h **** public:
  24:src/../h/Riscv.h **** 
  25:src/../h/Riscv.h ****     // pop sstatus.spp and sstatus.spie bits (has to be a non inline function)
  26:src/../h/Riscv.h ****     static void popSppSpie();
  27:src/../h/Riscv.h **** 
  28:src/../h/Riscv.h ****     // read register scause
  29:src/../h/Riscv.h ****     static uint64 r_scause();
  30:src/../h/Riscv.h **** 
  31:src/../h/Riscv.h ****     // write register scause
  32:src/../h/Riscv.h ****     static void w_scause(uint64 scause);
  33:src/../h/Riscv.h **** 
  34:src/../h/Riscv.h ****     // read register sepc
  35:src/../h/Riscv.h ****     static uint64 r_sepc();
  36:src/../h/Riscv.h **** 
  37:src/../h/Riscv.h ****     // write register sepc
GAS LISTING /tmp/ccoMjKN7.s 			page 3


  38:src/../h/Riscv.h ****     static void w_sepc(uint64 sepc);
  39:src/../h/Riscv.h **** 
  40:src/../h/Riscv.h ****     // read register stvec
  41:src/../h/Riscv.h ****     static uint64 r_stvec();
  42:src/../h/Riscv.h **** 
  43:src/../h/Riscv.h ****     // write register stvec
  44:src/../h/Riscv.h ****     static void w_stvec(uint64 stvec);
  45:src/../h/Riscv.h **** 
  46:src/../h/Riscv.h ****     // read register stval
  47:src/../h/Riscv.h ****     static uint64 r_stval();
  48:src/../h/Riscv.h **** 
  49:src/../h/Riscv.h ****     // write register stval
  50:src/../h/Riscv.h ****     static void w_stval(uint64 stval);
  51:src/../h/Riscv.h **** 
  52:src/../h/Riscv.h ****     enum BitMaskSip
  53:src/../h/Riscv.h ****     {
  54:src/../h/Riscv.h ****         SIP_SSIE = (1 << 1),
  55:src/../h/Riscv.h ****         SIP_STIE = (1 << 5),
  56:src/../h/Riscv.h ****         SIP_SEIE = (1 << 9),
  57:src/../h/Riscv.h ****     };
  58:src/../h/Riscv.h **** 
  59:src/../h/Riscv.h ****     // mask set register sip
  60:src/../h/Riscv.h ****     static void ms_sip(uint64 mask);
  61:src/../h/Riscv.h **** 
  62:src/../h/Riscv.h ****     // mask clear register sip
  63:src/../h/Riscv.h ****     static void mc_sip(uint64 mask);
  64:src/../h/Riscv.h **** 
  65:src/../h/Riscv.h ****     // read register sip
  66:src/../h/Riscv.h ****     static uint64 r_sip();
  67:src/../h/Riscv.h **** 
  68:src/../h/Riscv.h ****     // write register sip
  69:src/../h/Riscv.h ****     static void w_sip(uint64 sip);
  70:src/../h/Riscv.h **** 
  71:src/../h/Riscv.h ****     enum BitMaskSstatus
  72:src/../h/Riscv.h ****     {
  73:src/../h/Riscv.h ****         SSTATUS_SIE = (1 << 1),
  74:src/../h/Riscv.h ****         SSTATUS_SPIE = (1 << 5),
  75:src/../h/Riscv.h ****         SSTATUS_SPP = (1 << 8),
  76:src/../h/Riscv.h ****     };
  77:src/../h/Riscv.h **** 
  78:src/../h/Riscv.h ****     // mask set register sstatus
  79:src/../h/Riscv.h ****     static void ms_sstatus(uint64 mask);
  80:src/../h/Riscv.h **** 
  81:src/../h/Riscv.h ****     // mask clear register sstatus
  82:src/../h/Riscv.h ****     static void mc_sstatus(uint64 mask);
  83:src/../h/Riscv.h **** 
  84:src/../h/Riscv.h ****     // read register sstatus
  85:src/../h/Riscv.h ****     static uint64 r_sstatus();
  86:src/../h/Riscv.h **** 
  87:src/../h/Riscv.h ****     // write register sstatus
  88:src/../h/Riscv.h ****     static void w_sstatus(uint64 sstatus);
  89:src/../h/Riscv.h **** 
  90:src/../h/Riscv.h **** };
  91:src/../h/Riscv.h **** 
  92:src/../h/Riscv.h **** inline uint64 Riscv::r_scause(){
  93:src/../h/Riscv.h ****     uint64 volatile scause;
  94:src/../h/Riscv.h ****     __asm__ volatile ("csrr %[scause], scause" : [scause] "=r"(scause));
GAS LISTING /tmp/ccoMjKN7.s 			page 4


  95:src/../h/Riscv.h ****     return scause;
  96:src/../h/Riscv.h **** }
  97:src/../h/Riscv.h **** 
  98:src/../h/Riscv.h **** inline void Riscv::w_scause(uint64 scause)
  99:src/../h/Riscv.h **** {
 100:src/../h/Riscv.h ****     __asm__ volatile ("csrw scause, %[scause]" : : [scause] "r"(scause));
 101:src/../h/Riscv.h **** }
 102:src/../h/Riscv.h **** 
 103:src/../h/Riscv.h **** inline uint64 Riscv::r_sepc()
 104:src/../h/Riscv.h **** {
 105:src/../h/Riscv.h ****     uint64 volatile sepc;
 106:src/../h/Riscv.h ****     __asm__ volatile ("csrr %[sepc], sepc" : [sepc] "=r"(sepc));
 107:src/../h/Riscv.h ****     return sepc;
 108:src/../h/Riscv.h **** }
 109:src/../h/Riscv.h **** 
 110:src/../h/Riscv.h **** inline void Riscv::w_sepc(uint64 sepc)
 111:src/../h/Riscv.h **** {
 112:src/../h/Riscv.h ****     __asm__ volatile ("csrw sepc, %[sepc]" : : [sepc] "r"(sepc));
 113:src/../h/Riscv.h **** }
 114:src/../h/Riscv.h **** 
 115:src/../h/Riscv.h **** inline uint64 Riscv::r_stvec()
 116:src/../h/Riscv.h **** {
 117:src/../h/Riscv.h ****     uint64 volatile stvec;
 118:src/../h/Riscv.h ****     __asm__ volatile ("csrr %[stvec], stvec" : [stvec] "=r"(stvec));
 119:src/../h/Riscv.h ****     return stvec;
 120:src/../h/Riscv.h **** }
 121:src/../h/Riscv.h **** 
 122:src/../h/Riscv.h **** inline void Riscv::w_stvec(uint64 stvec)
 123:src/../h/Riscv.h **** {
 124:src/../h/Riscv.h ****     __asm__ volatile ("csrw stvec, %[stvec]" : : [stvec] "r"(stvec));
  61              		.loc 2 124 5 is_stmt 1
  62              		.loc 2 124 69 is_stmt 0
  63              	#APP
  64              	# 124 "src/../h/Riscv.h" 1
 125              	}
  65              		csrw stvec, a5
  66              	# 0 "" 2
  67              	.LVL2:
  68              	#NO_APP
  69              	.LBE5:
  70              	.LBE4:
  19:src/main.cpp  **** 
  20:src/main.cpp  ****     KConsole::init();
  71              		.loc 1 20 5 is_stmt 1
  72              		.loc 1 20 19 is_stmt 0
  73 0048 97000000 		call	_ZN8KConsole4initEv@plt
  73      E7800000 
  74              	.LVL3:
  21:src/main.cpp  ****     thread_t t;
  75              		.loc 1 21 5 is_stmt 1
  22:src/main.cpp  ****     thread_create(&t, mainWrapper, nullptr);
  76              		.loc 1 22 5
  77              		.loc 1 22 18 is_stmt 0
  78 0050 13060000 		li	a2,0
  79 0054 97050000 		lla	a1,_Z11mainWrapperPv
  79      93850500 
  80 005c 130584FE 		addi	a0,s0,-24
GAS LISTING /tmp/ccoMjKN7.s 			page 5


  81 0060 97000000 		call	_Z13thread_createPP3TCBPFvPvES2_@plt
  81      E7800000 
  82              	.LVL4:
  23:src/main.cpp  **** 
  24:src/main.cpp  ****     thread_join(t);
  83              		.loc 1 24 5 is_stmt 1
  84              		.loc 1 24 16 is_stmt 0
  85 0068 033584FE 		ld	a0,-24(s0)
  86 006c 97000000 		call	_Z11thread_joinP3TCB@plt
  86      E7800000 
  87              	.LVL5:
  25:src/main.cpp  **** 
  26:src/main.cpp  ****     return 0;
  88              		.loc 1 26 5 is_stmt 1
  27:src/main.cpp  **** }
  89              		.loc 1 27 1 is_stmt 0
  90 0074 13050000 		li	a0,0
  91 0078 83308101 		ld	ra,24(sp)
  92              		.cfi_restore 1
  93 007c 03340101 		ld	s0,16(sp)
  94              		.cfi_restore 8
  95              		.cfi_def_cfa 2, 32
  96 0080 13010102 		addi	sp,sp,32
  97              		.cfi_def_cfa_offset 0
  98 0084 67800000 		jr	ra
  99              		.cfi_endproc
 100              	.LFE36:
 102              	.Letext0:
 103              		.file 3 "src/../h/../lib/hw.h"
 104              		.file 4 "src/../h/TCB.h"
 105              		.file 5 "src/../h/Sem.h"
 106              		.file 6 "src/../h/syscall_c.hpp"
 107              		.file 7 "src/../h/KBuffer.h"
 108              		.file 8 "src/../h/KConsole.h"
GAS LISTING /tmp/ccoMjKN7.s 			page 6


DEFINED SYMBOLS
                            *ABS*:0000000000000000 main.cpp
     /tmp/ccoMjKN7.s:9      .text:0000000000000000 _Z11mainWrapperPv
     /tmp/ccoMjKN7.s:13     .text:0000000000000000 .L0 
     /tmp/ccoMjKN7.s:14     .text:0000000000000000 .L0 
     /tmp/ccoMjKN7.s:15     .text:0000000000000004 .L0 
     /tmp/ccoMjKN7.s:18     .text:000000000000000c .L0 
     /tmp/ccoMjKN7.s:19     .text:000000000000000c .L0 
     /tmp/ccoMjKN7.s:21     .text:0000000000000010 .L0 
     /tmp/ccoMjKN7.s:23     .text:0000000000000010 .L0 
     /tmp/ccoMjKN7.s:24     .text:0000000000000010 .L0 
     /tmp/ccoMjKN7.s:27     .text:0000000000000018 .L0 
     /tmp/ccoMjKN7.s:28     .text:000000000000001c .L0 
     /tmp/ccoMjKN7.s:30     .text:0000000000000020 .L0 
     /tmp/ccoMjKN7.s:31     .text:0000000000000020 .L0 
     /tmp/ccoMjKN7.s:33     .text:0000000000000024 .L0 
     /tmp/ccoMjKN7.s:35     .text:0000000000000028 .L0 
     /tmp/ccoMjKN7.s:41     .text:0000000000000028 main
     /tmp/ccoMjKN7.s:44     .text:0000000000000028 .L0 
     /tmp/ccoMjKN7.s:45     .text:0000000000000028 .L0 
     /tmp/ccoMjKN7.s:46     .text:000000000000002c .L0 
     /tmp/ccoMjKN7.s:49     .text:0000000000000034 .L0 
     /tmp/ccoMjKN7.s:50     .text:0000000000000034 .L0 
     /tmp/ccoMjKN7.s:52     .text:0000000000000038 .L0 
     /tmp/ccoMjKN7.s:54     .text:0000000000000038 .L0 
     /tmp/ccoMjKN7.s:55     .text:0000000000000038 .L0 
     /tmp/ccoMjKN7.s:62     .text:0000000000000044 .L0 
    src/../h/Riscv.h:124    .text:0000000000000044 .L0 
     /tmp/ccoMjKN7.s:72     .text:0000000000000048 .L0 
     /tmp/ccoMjKN7.s:73     .text:0000000000000048 .L0 
     /tmp/ccoMjKN7.s:76     .text:0000000000000050 .L0 
     /tmp/ccoMjKN7.s:77     .text:0000000000000050 .L0 
     /tmp/ccoMjKN7.s:78     .text:0000000000000050 .L0 
     /tmp/ccoMjKN7.s:84     .text:0000000000000068 .L0 
     /tmp/ccoMjKN7.s:85     .text:0000000000000068 .L0 
     /tmp/ccoMjKN7.s:89     .text:0000000000000074 .L0 
     /tmp/ccoMjKN7.s:90     .text:0000000000000074 .L0 
     /tmp/ccoMjKN7.s:92     .text:000000000000007c .L0 
     /tmp/ccoMjKN7.s:94     .text:0000000000000080 .L0 
     /tmp/ccoMjKN7.s:95     .text:0000000000000080 .L0 
     /tmp/ccoMjKN7.s:97     .text:0000000000000084 .L0 
     /tmp/ccoMjKN7.s:99     .text:0000000000000088 .L0 
     /tmp/ccoMjKN7.s:109    .text:0000000000000088 .L0 
     /tmp/ccoMjKN7.s:55     .text:0000000000000038 .L0 
     /tmp/ccoMjKN7.s:79     .text:0000000000000054 .L0 
     /tmp/ccoMjKN7.s:1454   .debug_abbrev:0000000000000000 .Ldebug_abbrev0
     /tmp/ccoMjKN7.s:2802   .debug_str:000000000000085e .LASF176
     /tmp/ccoMjKN7.s:2586   .debug_str:0000000000000234 .LASF177
     /tmp/ccoMjKN7.s:2600   .debug_str:00000000000002b6 .LASF178
     /tmp/ccoMjKN7.s:5      .text:0000000000000000 .Ltext0
     /tmp/ccoMjKN7.s:102    .text:0000000000000088 .Letext0
     /tmp/ccoMjKN7.s:2496   .debug_line:0000000000000000 .Ldebug_line0
     /tmp/ccoMjKN7.s:2618   .debug_str:000000000000034a .LASF0
     /tmp/ccoMjKN7.s:2646   .debug_str:0000000000000417 .LASF1
     /tmp/ccoMjKN7.s:2736   .debug_str:00000000000006aa .LASF2
     /tmp/ccoMjKN7.s:2746   .debug_str:00000000000006f8 .LASF4
     /tmp/ccoMjKN7.s:2630   .debug_str:0000000000000394 .LASF3
GAS LISTING /tmp/ccoMjKN7.s 			page 7


     /tmp/ccoMjKN7.s:2512   .debug_str:0000000000000072 .LASF5
     /tmp/ccoMjKN7.s:2706   .debug_str:00000000000005c5 .LASF6
     /tmp/ccoMjKN7.s:2638   .debug_str:00000000000003dc .LASF7
     /tmp/ccoMjKN7.s:2594   .debug_str:0000000000000279 .LASF8
     /tmp/ccoMjKN7.s:2604   .debug_str:00000000000002d9 .LASF9
     /tmp/ccoMjKN7.s:2542   .debug_str:0000000000000120 .LASF10
     /tmp/ccoMjKN7.s:2584   .debug_str:0000000000000225 .LASF11
     /tmp/ccoMjKN7.s:2556   .debug_str:0000000000000179 .LASF12
     /tmp/ccoMjKN7.s:2540   .debug_str:0000000000000110 .LASF13
     /tmp/ccoMjKN7.s:2782   .debug_str:00000000000007d3 .LASF14
     /tmp/ccoMjKN7.s:2578   .debug_str:00000000000001f7 .LASF15
     /tmp/ccoMjKN7.s:2766   .debug_str:0000000000000767 .LASF16
     /tmp/ccoMjKN7.s:2666   .debug_str:000000000000049e .LASF17
     /tmp/ccoMjKN7.s:2806   .debug_str:0000000000000929 .LASF179
     /tmp/ccoMjKN7.s:2528   .debug_str:00000000000000c4 .LASF18
     /tmp/ccoMjKN7.s:2538   .debug_str:000000000000010a .LASF19
     /tmp/ccoMjKN7.s:2498   .debug_str:0000000000000000 .LASF20
     /tmp/ccoMjKN7.s:2548   .debug_str:000000000000013e .LASF21
     /tmp/ccoMjKN7.s:2602   .debug_str:00000000000002d4 .LASF22
     /tmp/ccoMjKN7.s:2786   .debug_str:00000000000007e6 .LASF23
     /tmp/ccoMjKN7.s:2562   .debug_str:00000000000001ae .LASF24
     /tmp/ccoMjKN7.s:2642   .debug_str:0000000000000401 .LASF25
     /tmp/ccoMjKN7.s:2544   .debug_str:000000000000012f .LASF26
     /tmp/ccoMjKN7.s:2854   .debug_str:0000000000000a96 .LASF28
     /tmp/ccoMjKN7.s:2708   .debug_str:00000000000005d8 .LASF32
     /tmp/ccoMjKN7.s:2504   .debug_str:0000000000000019 .LASF31
     /tmp/ccoMjKN7.s:2640   .debug_str:00000000000003ef .LASF67
     /tmp/ccoMjKN7.s:2748   .debug_str:00000000000006ff .LASF27
     /tmp/ccoMjKN7.s:2508   .debug_str:0000000000000051 .LASF29
     /tmp/ccoMjKN7.s:2702   .debug_str:00000000000005a7 .LASF30
     /tmp/ccoMjKN7.s:2694   .debug_str:000000000000056c .LASF33
     /tmp/ccoMjKN7.s:2850   .debug_str:0000000000000a67 .LASF72
     /tmp/ccoMjKN7.s:2700   .debug_str:00000000000005a2 .LASF180
     /tmp/ccoMjKN7.s:2834   .debug_str:00000000000009f9 .LASF34
     /tmp/ccoMjKN7.s:2724   .debug_str:000000000000064e .LASF35
     /tmp/ccoMjKN7.s:2760   .debug_str:0000000000000746 .LASF36
     /tmp/ccoMjKN7.s:2792   .debug_str:00000000000007fe .LASF37
     /tmp/ccoMjKN7.s:2794   .debug_str:000000000000081b .LASF38
     /tmp/ccoMjKN7.s:2588   .debug_str:0000000000000241 .LASF39
     /tmp/ccoMjKN7.s:2800   .debug_str:0000000000000856 .LASF94
     /tmp/ccoMjKN7.s:2502   .debug_str:0000000000000014 .LASF40
     /tmp/ccoMjKN7.s:2848   .debug_str:0000000000000a61 .LASF41
     /tmp/ccoMjKN7.s:2812   .debug_str:0000000000000946 .LASF42
     /tmp/ccoMjKN7.s:2808   .debug_str:000000000000092f .LASF43
     /tmp/ccoMjKN7.s:2718   .debug_str:000000000000062d .LASF44
     /tmp/ccoMjKN7.s:2570   .debug_str:00000000000001ce .LASF45
     /tmp/ccoMjKN7.s:2772   .debug_str:0000000000000795 .LASF46
     /tmp/ccoMjKN7.s:2526   .debug_str:00000000000000b3 .LASF47
     /tmp/ccoMjKN7.s:2788   .debug_str:00000000000007ee .LASF48
     /tmp/ccoMjKN7.s:2680   .debug_str:0000000000000509 .LASF49
     /tmp/ccoMjKN7.s:2742   .debug_str:00000000000006d7 .LASF50
     /tmp/ccoMjKN7.s:2838   .debug_str:0000000000000a0f .LASF51
     /tmp/ccoMjKN7.s:2650   .debug_str:0000000000000434 .LASF52
     /tmp/ccoMjKN7.s:2824   .debug_str:00000000000009a5 .LASF53
     /tmp/ccoMjKN7.s:2564   .debug_str:00000000000001b3 .LASF54
     /tmp/ccoMjKN7.s:2744   .debug_str:00000000000006e0 .LASF55
     /tmp/ccoMjKN7.s:2810   .debug_str:0000000000000939 .LASF56
GAS LISTING /tmp/ccoMjKN7.s 			page 8


     /tmp/ccoMjKN7.s:2674   .debug_str:00000000000004d8 .LASF57
     /tmp/ccoMjKN7.s:2554   .debug_str:000000000000016c .LASF58
     /tmp/ccoMjKN7.s:2826   .debug_str:00000000000009be .LASF59
     /tmp/ccoMjKN7.s:2780   .debug_str:00000000000007c6 .LASF60
     /tmp/ccoMjKN7.s:2590   .debug_str:0000000000000252 .LASF61
     /tmp/ccoMjKN7.s:2566   .debug_str:00000000000001c0 .LASF62
     /tmp/ccoMjKN7.s:2550   .debug_str:0000000000000147 .LASF64
     /tmp/ccoMjKN7.s:2520   .debug_str:000000000000008f .LASF88
     /tmp/ccoMjKN7.s:2558   .debug_str:0000000000000189 .LASF89
     /tmp/ccoMjKN7.s:2762   .debug_str:0000000000000758 .LASF117
     /tmp/ccoMjKN7.s:2634   .debug_str:00000000000003c0 .LASF119
     /tmp/ccoMjKN7.s:2530   .debug_str:00000000000000cd .LASF63
     /tmp/ccoMjKN7.s:2652   .debug_str:0000000000000441 .LASF65
     /tmp/ccoMjKN7.s:2560   .debug_str:00000000000001a0 .LASF66
     /tmp/ccoMjKN7.s:2506   .debug_str:0000000000000029 .LASF68
     /tmp/ccoMjKN7.s:2714   .debug_str:0000000000000609 .LASF69
     /tmp/ccoMjKN7.s:2768   .debug_str:000000000000077d .LASF70
     /tmp/ccoMjKN7.s:2730   .debug_str:0000000000000684 .LASF71
     /tmp/ccoMjKN7.s:2532   .debug_str:00000000000000db .LASF73
     /tmp/ccoMjKN7.s:2654   .debug_str:000000000000045a .LASF74
     /tmp/ccoMjKN7.s:2500   .debug_str:0000000000000008 .LASF75
     /tmp/ccoMjKN7.s:2568   .debug_str:00000000000001c9 .LASF76
     /tmp/ccoMjKN7.s:2678   .debug_str:00000000000004fa .LASF77
     /tmp/ccoMjKN7.s:2784   .debug_str:00000000000007df .LASF78
     /tmp/ccoMjKN7.s:2774   .debug_str:000000000000079a .LASF79
     /tmp/ccoMjKN7.s:2616   .debug_str:0000000000000344 .LASF80
     /tmp/ccoMjKN7.s:2582   .debug_str:0000000000000215 .LASF81
     /tmp/ccoMjKN7.s:2846   .debug_str:0000000000000a59 .LASF82
     /tmp/ccoMjKN7.s:2752   .debug_str:000000000000070a .LASF83
     /tmp/ccoMjKN7.s:2856   .debug_str:0000000000000aa3 .LASF84
     /tmp/ccoMjKN7.s:2758   .debug_str:0000000000000738 .LASF103
     /tmp/ccoMjKN7.s:2764   .debug_str:000000000000075d .LASF85
     /tmp/ccoMjKN7.s:2664   .debug_str:000000000000048a .LASF86
     /tmp/ccoMjKN7.s:2596   .debug_str:0000000000000289 .LASF87
     /tmp/ccoMjKN7.s:2636   .debug_str:00000000000003cf .LASF90
     /tmp/ccoMjKN7.s:2686   .debug_str:000000000000053f .LASF91
     /tmp/ccoMjKN7.s:2828   .debug_str:00000000000009d6 .LASF92
     /tmp/ccoMjKN7.s:2576   .debug_str:00000000000001ef .LASF93
     /tmp/ccoMjKN7.s:2804   .debug_str:0000000000000922 .LASF95
     /tmp/ccoMjKN7.s:2814   .debug_str:000000000000094e .LASF96
     /tmp/ccoMjKN7.s:2670   .debug_str:00000000000004b4 .LASF97
     /tmp/ccoMjKN7.s:2648   .debug_str:000000000000042a .LASF98
     /tmp/ccoMjKN7.s:2676   .debug_str:00000000000004f0 .LASF99
     /tmp/ccoMjKN7.s:2524   .debug_str:00000000000000a3 .LASF100
     /tmp/ccoMjKN7.s:2522   .debug_str:000000000000009a .LASF101
     /tmp/ccoMjKN7.s:2862   .debug_str:0000000000000ad0 .LASF102
     /tmp/ccoMjKN7.s:2534   .debug_str:00000000000000e7 .LASF104
     /tmp/ccoMjKN7.s:2704   .debug_str:00000000000005b3 .LASF181
     /tmp/ccoMjKN7.s:2728   .debug_str:000000000000067d .LASF105
     /tmp/ccoMjKN7.s:2756   .debug_str:0000000000000723 .LASF107
     /tmp/ccoMjKN7.s:2770   .debug_str:000000000000078e .LASF106
     /tmp/ccoMjKN7.s:2820   .debug_str:0000000000000982 .LASF108
     /tmp/ccoMjKN7.s:2572   .debug_str:00000000000001d4 .LASF109
     /tmp/ccoMjKN7.s:2606   .debug_str:00000000000002e7 .LASF110
     /tmp/ccoMjKN7.s:2840   .debug_str:0000000000000a2b .LASF111
     /tmp/ccoMjKN7.s:2644   .debug_str:0000000000000406 .LASF112
     /tmp/ccoMjKN7.s:2662   .debug_str:0000000000000481 .LASF113
GAS LISTING /tmp/ccoMjKN7.s 			page 9


     /tmp/ccoMjKN7.s:2536   .debug_str:00000000000000f9 .LASF114
     /tmp/ccoMjKN7.s:2580   .debug_str:000000000000020d .LASF115
     /tmp/ccoMjKN7.s:2710   .debug_str:00000000000005e9 .LASF116
     /tmp/ccoMjKN7.s:2626   .debug_str:0000000000000380 .LASF133
     /tmp/ccoMjKN7.s:2682   .debug_str:0000000000000520 .LASF135
     /tmp/ccoMjKN7.s:2518   .debug_str:000000000000008a .LASF118
     /tmp/ccoMjKN7.s:2656   .debug_str:000000000000045f .LASF120
     /tmp/ccoMjKN7.s:2628   .debug_str:0000000000000388 .LASF121
     /tmp/ccoMjKN7.s:2830   .debug_str:00000000000009df .LASF122
     /tmp/ccoMjKN7.s:2790   .debug_str:00000000000007f9 .LASF123
     /tmp/ccoMjKN7.s:2516   .debug_str:0000000000000084 .LASF124
     /tmp/ccoMjKN7.s:2668   .debug_str:00000000000004a3 .LASF125
     /tmp/ccoMjKN7.s:2796   .debug_str:0000000000000820 .LASF126
     /tmp/ccoMjKN7.s:2832   .debug_str:00000000000009ec .LASF127
     /tmp/ccoMjKN7.s:2632   .debug_str:00000000000003a6 .LASF128
     /tmp/ccoMjKN7.s:2620   .debug_str:0000000000000357 .LASF129
     /tmp/ccoMjKN7.s:2818   .debug_str:0000000000000966 .LASF130
     /tmp/ccoMjKN7.s:2610   .debug_str:000000000000030f .LASF131
     /tmp/ccoMjKN7.s:2614   .debug_str:000000000000032c .LASF132
     /tmp/ccoMjKN7.s:2816   .debug_str:000000000000095d .LASF134
     /tmp/ccoMjKN7.s:2510   .debug_str:000000000000005d .LASF136
     /tmp/ccoMjKN7.s:2732   .debug_str:0000000000000696 .LASF137
     /tmp/ccoMjKN7.s:2698   .debug_str:000000000000058d .LASF138
     /tmp/ccoMjKN7.s:2720   .debug_str:000000000000063a .LASF139
     /tmp/ccoMjKN7.s:2716   .debug_str:000000000000061a .LASF140
     /tmp/ccoMjKN7.s:2688   .debug_str:0000000000000544 .LASF141
     /tmp/ccoMjKN7.s:2740   .debug_str:00000000000006c4 .LASF142
     /tmp/ccoMjKN7.s:2842   .debug_str:0000000000000a3b .LASF143
     /tmp/ccoMjKN7.s:2778   .debug_str:00000000000007b2 .LASF144
     /tmp/ccoMjKN7.s:2684   .debug_str:0000000000000537 .LASF145
     /tmp/ccoMjKN7.s:2696   .debug_str:0000000000000579 .LASF146
     /tmp/ccoMjKN7.s:2658   .debug_str:0000000000000473 .LASF147
     /tmp/ccoMjKN7.s:2726   .debug_str:0000000000000669 .LASF148
     /tmp/ccoMjKN7.s:2860   .debug_str:0000000000000ac8 .LASF149
     /tmp/ccoMjKN7.s:2624   .debug_str:000000000000036c .LASF150
     /tmp/ccoMjKN7.s:2776   .debug_str:00000000000007ab .LASF151
     /tmp/ccoMjKN7.s:2858   .debug_str:0000000000000ab5 .LASF152
     /tmp/ccoMjKN7.s:2754   .debug_str:000000000000071c .LASF153
     /tmp/ccoMjKN7.s:2574   .debug_str:00000000000001dc .LASF154
     /tmp/ccoMjKN7.s:2750   .debug_str:0000000000000704 .LASF155
     /tmp/ccoMjKN7.s:2612   .debug_str:000000000000031a .LASF156
     /tmp/ccoMjKN7.s:2622   .debug_str:0000000000000366 .LASF157
     /tmp/ccoMjKN7.s:2608   .debug_str:00000000000002fd .LASF158
     /tmp/ccoMjKN7.s:2514   .debug_str:0000000000000079 .LASF159
     /tmp/ccoMjKN7.s:2798   .debug_str:000000000000083e .LASF160
     /tmp/ccoMjKN7.s:2734   .debug_str:000000000000069f .LASF161
     /tmp/ccoMjKN7.s:2852   .debug_str:0000000000000a7e .LASF162
     /tmp/ccoMjKN7.s:2836   .debug_str:0000000000000a05 .LASF163
     /tmp/ccoMjKN7.s:2844   .debug_str:0000000000000a43 .LASF164
     /tmp/ccoMjKN7.s:2546   .debug_str:0000000000000134 .LASF165
     /tmp/ccoMjKN7.s:2672   .debug_str:00000000000004c2 .LASF166
     /tmp/ccoMjKN7.s:2592   .debug_str:0000000000000274 .LASF167
     /tmp/ccoMjKN7.s:42     .text:0000000000000028 .LFB36
     /tmp/ccoMjKN7.s:100    .text:0000000000000088 .LFE36
     /tmp/ccoMjKN7.s:58     .text:0000000000000044 .LBB4
     /tmp/ccoMjKN7.s:70     .text:0000000000000048 .LBE4
     /tmp/ccoMjKN7.s:2476   .debug_loc:0000000000000000 .LLST0
GAS LISTING /tmp/ccoMjKN7.s 			page 10


     /tmp/ccoMjKN7.s:74     .text:0000000000000050 .LVL3
     /tmp/ccoMjKN7.s:82     .text:0000000000000068 .LVL4
     /tmp/ccoMjKN7.s:87     .text:0000000000000074 .LVL5
     /tmp/ccoMjKN7.s:2738   .debug_str:00000000000006b8 .LASF168
     /tmp/ccoMjKN7.s:2552   .debug_str:000000000000015a .LASF169
     /tmp/ccoMjKN7.s:10     .text:0000000000000000 .LFB35
     /tmp/ccoMjKN7.s:36     .text:0000000000000028 .LFE35
     /tmp/ccoMjKN7.s:25     .text:0000000000000018 .LVL0
     /tmp/ccoMjKN7.s:2660   .debug_str:000000000000047b .LASF182
     /tmp/ccoMjKN7.s:2598   .debug_str:0000000000000295 .LASF170
     /tmp/ccoMjKN7.s:2822   .debug_str:0000000000000997 .LASF172
     /tmp/ccoMjKN7.s:2692   .debug_str:0000000000000557 .LASF171
     /tmp/ccoMjKN7.s:2690   .debug_str:000000000000054b .LASF173
     /tmp/ccoMjKN7.s:2722   .debug_str:0000000000000641 .LASF174
     /tmp/ccoMjKN7.s:2712   .debug_str:0000000000000600 .LASF175
     /tmp/ccoMjKN7.s:57     .text:0000000000000044 .LVL1
     /tmp/ccoMjKN7.s:67     .text:0000000000000048 .LVL2
     /tmp/ccoMjKN7.s:110    .debug_info:0000000000000000 .Ldebug_info0

UNDEFINED SYMBOLS
_Z8userMainv
SuperVisorTrap
_ZN8KConsole4initEv
_Z13thread_createPP3TCBPFvPvES2_
_Z11thread_joinP3TCB
