GAS LISTING /tmp/ccoMjKN7.s 			page 1


   1              		.file	"main.cpp"
   2              		.option pic
   3              		.option norelax
   4              		.text
   5              	.Ltext0:
   6              		.align	2
   7              		.globl	_Z11mainWrapperPv
   9              	_Z11mainWrapperPv:
  10              	.LFB35:
  11              		.file 1 "src/main.cpp"
   1:src/main.cpp  **** //
   2:src/main.cpp  **** // Created by os on 6/2/23.
   3:src/main.cpp  **** //
   4:src/main.cpp  **** 
   5:src/main.cpp  **** #include "../h/Riscv.h"
   6:src/main.cpp  **** #include "../h/syscall_c.hpp"
   7:src/main.cpp  **** #include "../h/KConsole.h"
   8:src/main.cpp  **** 
   9:src/main.cpp  **** extern "C" void SuperVisorTrap();
  10:src/main.cpp  **** void userMain();
  11:src/main.cpp  **** 
  12:src/main.cpp  **** void mainWrapper(void*){
  12              		.loc 1 12 24
  13              		.cfi_startproc
  14 0000 130101FF 		addi	sp,sp,-16
  15              		.cfi_def_cfa_offset 16
  16 0004 23341100 		sd	ra,8(sp)
  17 0008 23308100 		sd	s0,0(sp)
  18              		.cfi_offset 1, -8
  19              		.cfi_offset 8, -16
  20 000c 13040101 		addi	s0,sp,16
  21              		.cfi_def_cfa 8, 0
  13:src/main.cpp  ****     userMain();
  22              		.loc 1 13 5
  23              		.loc 1 13 13 is_stmt 0
  24 0010 97000000 		call	_Z8userMainv@plt
  24      E7800000 
  25              	.LVL0:
  14:src/main.cpp  **** }
  26              		.loc 1 14 1
  27 0018 83308100 		ld	ra,8(sp)
  28              		.cfi_restore 1
  29 001c 03340100 		ld	s0,0(sp)
  30              		.cfi_restore 8
  31              		.cfi_def_cfa 2, 16
  32 0020 13010101 		addi	sp,sp,16
  33              		.cfi_def_cfa_offset 0
  34 0024 67800000 		jr	ra
  35              		.cfi_endproc
  36              	.LFE35:
  38              		.align	2
  39              		.globl	main
  41              	main:
  42              	.LFB36:
  15:src/main.cpp  **** 
  16:src/main.cpp  **** int main(){
  43              		.loc 1 16 11 is_stmt 1
GAS LISTING /tmp/ccoMjKN7.s 			page 2


  44              		.cfi_startproc
  45 0028 130101FE 		addi	sp,sp,-32
  46              		.cfi_def_cfa_offset 32
  47 002c 233C1100 		sd	ra,24(sp)
  48 0030 23388100 		sd	s0,16(sp)
  49              		.cfi_offset 1, -8
  50              		.cfi_offset 8, -16
  51 0034 13040102 		addi	s0,sp,32
  52              		.cfi_def_cfa 8, 0
  17:src/main.cpp  **** 
  18:src/main.cpp  ****     Riscv::w_stvec((uint64)SuperVisorTrap | 1);
  53              		.loc 1 18 5
  54              		.loc 1 18 19 is_stmt 0
  55 0038 97070000 		la	a5,SuperVisorTrap
  55      83B70700 
  56 0040 93E71700 		ori	a5,a5,1
  57              	.LVL1:
  58              	.LBB4:
  59              	.LBB5:
  60              		.file 2 "src/../h/Riscv.h"
   1:src/../h/Riscv.h **** //
   2:src/../h/Riscv.h **** // Created by os on 6/30/23.
   3:src/../h/Riscv.h **** //
   4:src/../h/Riscv.h **** 
   5:src/../h/Riscv.h **** #ifndef PROJECT_BASE_RISCV_H
   6:src/../h/Riscv.h **** #define PROJECT_BASE_RISCV_H
   7:src/../h/Riscv.h **** 
   8:src/../h/Riscv.h **** #include "MemoryAllocator.h"
   9:src/../h/Riscv.h **** #include "TCB.h"
  10:src/../h/Riscv.h **** #include "Sem.h"
  11:src/../h/Riscv.h **** #include "TimerSleep.h"
  12:src/../h/Riscv.h **** #include "KConsole.h"
  13:src/../h/Riscv.h **** 
  14:src/../h/Riscv.h **** class Riscv{
  15:src/../h/Riscv.h **** private:
  16:src/../h/Riscv.h **** 
  17:src/../h/Riscv.h ****     static void interruptHandler();
  18:src/../h/Riscv.h **** 
  19:src/../h/Riscv.h ****     static void timerHandler();
  20:src/../h/Riscv.h **** 
  21:src/../h/Riscv.h ****     static void consoleHandler();
  22:src/../h/Riscv.h **** 
  23:src/../h/Riscv.h **** public:
  24:src/../h/Riscv.h **** 
  25:src/../h/Riscv.h ****     // pop sstatus.spp and sstatus.spie bits (has to be a non inline function)
  26:src/../h/Riscv.h ****     static void popSppSpie();
  27:src/../h/Riscv.h **** 
  28:src/../h/Riscv.h ****     // read register scause
  29:src/../h/Riscv.h ****     static uint64 r_scause();
  30:src/../h/Riscv.h **** 
  31:src/../h/Riscv.h ****     // write register scause
  32:src/../h/Riscv.h ****     static void w_scause(uint64 scause);
  33:src/../h/Riscv.h **** 
  34:src/../h/Riscv.h ****     // read register sepc
  35:src/../h/Riscv.h ****     static uint64 r_sepc();
  36:src/../h/Riscv.h **** 
  37:src/../h/Riscv.h ****     // write register sepc
GAS LISTING /tmp/ccoMjKN7.s 			page 3


  38:src/../h/Riscv.h ****     static void w_sepc(uint64 sepc);
  39:src/../h/Riscv.h **** 
  40:src/../h/Riscv.h ****     // read register stvec
  41:src/../h/Riscv.h ****     static uint64 r_stvec();
  42:src/../h/Riscv.h **** 
  43:src/../h/Riscv.h ****     // write register stvec
  44:src/../h/Riscv.h ****     static void w_stvec(uint64 stvec);
  45:src/../h/Riscv.h **** 
  46:src/../h/Riscv.h ****     // read register stval
  47:src/../h/Riscv.h ****     static uint64 r_stval();
  48:src/../h/Riscv.h **** 
  49:src/../h/Riscv.h ****     // write register stval
  50:src/../h/Riscv.h ****     static void w_stval(uint64 stval);
  51:src/../h/Riscv.h **** 
  52:src/../h/Riscv.h ****     enum BitMaskSip
  53:src/../h/Riscv.h ****     {
  54:src/../h/Riscv.h ****         SIP_SSIE = (1 << 1),
  55:src/../h/Riscv.h ****         SIP_STIE = (1 << 5),
  56:src/../h/Riscv.h ****         SIP_SEIE = (1 << 9),
  57:src/../h/Riscv.h ****     };
  58:src/../h/Riscv.h **** 
  59:src/../h/Riscv.h ****     // mask set register sip
  60:src/../h/Riscv.h ****     static void ms_sip(uint64 mask);
  61:src/../h/Riscv.h **** 
  62:src/../h/Riscv.h ****     // mask clear register sip
  63:src/../h/Riscv.h ****     static void mc_sip(uint64 mask);
  64:src/../h/Riscv.h **** 
  65:src/../h/Riscv.h ****     // read register sip
  66:src/../h/Riscv.h ****     static uint64 r_sip();
  67:src/../h/Riscv.h **** 
  68:src/../h/Riscv.h ****     // write register sip
  69:src/../h/Riscv.h ****     static void w_sip(uint64 sip);
  70:src/../h/Riscv.h **** 
  71:src/../h/Riscv.h ****     enum BitMaskSstatus
  72:src/../h/Riscv.h ****     {
  73:src/../h/Riscv.h ****         SSTATUS_SIE = (1 << 1),
  74:src/../h/Riscv.h ****         SSTATUS_SPIE = (1 << 5),
  75:src/../h/Riscv.h ****         SSTATUS_SPP = (1 << 8),
  76:src/../h/Riscv.h ****     };
  77:src/../h/Riscv.h **** 
  78:src/../h/Riscv.h ****     // mask set register sstatus
  79:src/../h/Riscv.h ****     static void ms_sstatus(uint64 mask);
  80:src/../h/Riscv.h **** 
  81:src/../h/Riscv.h ****     // mask clear register sstatus
  82:src/../h/Riscv.h ****     static void mc_sstatus(uint64 mask);
  83:src/../h/Riscv.h **** 
  84:src/../h/Riscv.h ****     // read register sstatus
  85:src/../h/Riscv.h ****     static uint64 r_sstatus();
  86:src/../h/Riscv.h **** 
  87:src/../h/Riscv.h ****     // write register sstatus
  88:src/../h/Riscv.h ****     static void w_sstatus(uint64 sstatus);
  89:src/../h/Riscv.h **** 
  90:src/../h/Riscv.h **** };
  91:src/../h/Riscv.h **** 
  92:src/../h/Riscv.h **** inline uint64 Riscv::r_scause(){
  93:src/../h/Riscv.h ****     uint64 volatile scause;
  94:src/../h/Riscv.h ****     __asm__ volatile ("csrr %[scause], scause" : [scause] "=r"(scause));
GAS LISTING /tmp/ccoMjKN7.s 			page 4


  95:src/../h/Riscv.h ****     return scause;
  96:src/../h/Riscv.h **** }
  97:src/../h/Riscv.h **** 
  98:src/../h/Riscv.h **** inline void Riscv::w_scause(uint64 scause)
  99:src/../h/Riscv.h **** {
 100:src/../h/Riscv.h ****     __asm__ volatile ("csrw scause, %[scause]" : : [scause] "r"(scause));
 101:src/../h/Riscv.h **** }
 102:src/../h/Riscv.h **** 
 103:src/../h/Riscv.h **** inline uint64 Riscv::r_sepc()
 104:src/../h/Riscv.h **** {
 105:src/../h/Riscv.h ****     uint64 volatile sepc;
 106:src/../h/Riscv.h ****     __asm__ volatile ("csrr %[sepc], sepc" : [sepc] "=r"(sepc));
 107:src/../h/Riscv.h ****     return sepc;
 108:src/../h/Riscv.h **** }
 109:src/../h/Riscv.h **** 
 110:src/../h/Riscv.h **** inline void Riscv::w_sepc(uint64 sepc)
 111:src/../h/Riscv.h **** {
 112:src/../h/Riscv.h ****     __asm__ volatile ("csrw sepc, %[sepc]" : : [sepc] "r"(sepc));
 113:src/../h/Riscv.h **** }
 114:src/../h/Riscv.h **** 
 115:src/../h/Riscv.h **** inline uint64 Riscv::r_stvec()
 116:src/../h/Riscv.h **** {
 117:src/../h/Riscv.h ****     uint64 volatile stvec;
 118:src/../h/Riscv.h ****     __asm__ volatile ("csrr %[stvec], stvec" : [stvec] "=r"(stvec));
 119:src/../h/Riscv.h ****     return stvec;
 120:src/../h/Riscv.h **** }
 121:src/../h/Riscv.h **** 
 122:src/../h/Riscv.h **** inline void Riscv::w_stvec(uint64 stvec)
 123:src/../h/Riscv.h **** {
 124:src/../h/Riscv.h ****     __asm__ volatile ("csrw stvec, %[stvec]" : : [stvec] "r"(stvec));
  61              		.loc 2 124 5 is_stmt 1
  62              		.loc 2 124 69 is_stmt 0
  63              	#APP
  64              	# 124 "src/../h/Riscv.h" 1
 125              	}
  65              		csrw stvec, a5
  66              	# 0 "" 2
  67              	.LVL2:
  68              	#NO_APP
  69              	.LBE5:
  70              	.LBE4:
  19:src/main.cpp  **** 
  20:src/main.cpp  ****     KConsole::init();
  71              		.loc 1 20 5 is_stmt 1
  72              		.loc 1 20 19 is_stmt 0
  73 0048 97000000 		call	_ZN8KConsole4initEv@plt
  73      E7800000 
  74              	.LVL3:
  21:src/main.cpp  ****     thread_t t;
  75              		.loc 1 21 5 is_stmt 1
  22:src/main.cpp  ****     thread_create(&t, mainWrapper, nullptr);
  76              		.loc 1 22 5
  77              		.loc 1 22 18 is_stmt 0
  78 0050 13060000 		li	a2,0
  79 0054 97050000 		lla	a1,_Z11mainWrapperPv
  79      93850500 
  80 005c 130584FE 		addi	a0,s0,-24
GAS LISTING /tmp/ccoMjKN7.s 			page 5


  81 0060 97000000 		call	_Z13thread_createPP3TCBPFvPvES2_@plt
  81      E7800000 
  82              	.LVL4:
  23:src/main.cpp  **** 
  24:src/main.cpp  ****     thread_join(t);
  83              		.loc 1 24 5 is_stmt 1
  84              		.loc 1 24 16 is_stmt 0
  85 0068 033584FE 		ld	a0,-24(s0)
  86 006c 97000000 		call	_Z11thread_joinP3TCB@plt
  86      E7800000 
  87              	.LVL5:
  25:src/main.cpp  **** 
  26:src/main.cpp  ****     return 0;
  88              		.loc 1 26 5 is_stmt 1
  27:src/main.cpp  **** }
  89              		.loc 1 27 1 is_stmt 0
  90 0074 13050000 		li	a0,0
  91 0078 83308101 		ld	ra,24(sp)
  92              		.cfi_restore 1
  93 007c 03340101 		ld	s0,16(sp)
  94              		.cfi_restore 8
  95              		.cfi_def_cfa 2, 32
  96 0080 13010102 		addi	sp,sp,32
  97              		.cfi_def_cfa_offset 0
  98 0084 67800000 		jr	ra
  99              		.cfi_endproc
 100              	.LFE36:
 102              	.Letext0:
 103              		.file 3 "src/../h/../lib/hw.h"
 104              		.file 4 "src/../h/TCB.h"
 105              		.file 5 "src/../h/Sem.h"
 106              		.file 6 "src/../h/syscall_c.hpp"
 107              		.file 7 "src/../h/KBuffer.h"
 108              		.file 8 "src/../h/KConsole.h"
GAS LISTING /tmp/ccoMjKN7.s 			page 6

