GAS LISTING /tmp/ccAgszbc.s 			page 1


   1              		.file	"Riscv.cpp"
   2              		.option pic
   3              		.option norelax
   4              		.text
   5              	.Ltext0:
   6              		.align	2
   7              		.globl	_ZN5Riscv16interruptHandlerEv
   9              	_ZN5Riscv16interruptHandlerEv:
  10              	.LFB35:
  11              		.file 1 "src/Riscv.cpp"
   1:src/Riscv.cpp **** //
   2:src/Riscv.cpp **** // Created by os on 6/30/23.
   3:src/Riscv.cpp **** //
   4:src/Riscv.cpp **** 
   5:src/Riscv.cpp **** #include "../h/Riscv.h"
   6:src/Riscv.cpp **** 
   7:src/Riscv.cpp **** void Riscv::interruptHandler() {
  12              		.loc 1 7 32
  13              		.cfi_startproc
  14 0000 130101FB 		addi	sp,sp,-80
  15              		.cfi_def_cfa_offset 80
  16 0004 23341104 		sd	ra,72(sp)
  17 0008 23308104 		sd	s0,64(sp)
  18 000c 233C9102 		sd	s1,56(sp)
  19 0010 23382103 		sd	s2,48(sp)
  20 0014 23343103 		sd	s3,40(sp)
  21 0018 23304103 		sd	s4,32(sp)
  22              		.cfi_offset 1, -8
  23              		.cfi_offset 8, -16
  24              		.cfi_offset 9, -24
  25              		.cfi_offset 18, -32
  26              		.cfi_offset 19, -40
  27              		.cfi_offset 20, -48
  28 001c 13040105 		addi	s0,sp,80
  29              		.cfi_def_cfa 8, 0
   8:src/Riscv.cpp ****     uint64 sepc = Riscv::r_sepc() + 4;
  30              		.loc 1 8 5
  31              	.LBB50:
  32              	.LBB51:
  33              		.file 2 "src/../h/Riscv.h"
   1:src/../h/Riscv.h **** //
   2:src/../h/Riscv.h **** // Created by os on 6/30/23.
   3:src/../h/Riscv.h **** //
   4:src/../h/Riscv.h **** 
   5:src/../h/Riscv.h **** #ifndef PROJECT_BASE_RISCV_H
   6:src/../h/Riscv.h **** #define PROJECT_BASE_RISCV_H
   7:src/../h/Riscv.h **** 
   8:src/../h/Riscv.h **** #include "MemoryAllocator.h"
   9:src/../h/Riscv.h **** #include "TCB.h"
  10:src/../h/Riscv.h **** #include "Sem.h"
  11:src/../h/Riscv.h **** #include "TimerSleep.h"
  12:src/../h/Riscv.h **** #include "KConsole.h"
  13:src/../h/Riscv.h **** 
  14:src/../h/Riscv.h **** class Riscv{
  15:src/../h/Riscv.h **** private:
  16:src/../h/Riscv.h **** 
  17:src/../h/Riscv.h ****     static void interruptHandler();
GAS LISTING /tmp/ccAgszbc.s 			page 2


  18:src/../h/Riscv.h **** 
  19:src/../h/Riscv.h ****     static void timerHandler();
  20:src/../h/Riscv.h **** 
  21:src/../h/Riscv.h ****     static void consoleHandler();
  22:src/../h/Riscv.h **** 
  23:src/../h/Riscv.h **** public:
  24:src/../h/Riscv.h **** 
  25:src/../h/Riscv.h ****     // pop sstatus.spp and sstatus.spie bits (has to be a non inline function)
  26:src/../h/Riscv.h ****     static void popSppSpie();
  27:src/../h/Riscv.h **** 
  28:src/../h/Riscv.h ****     // read register scause
  29:src/../h/Riscv.h ****     static uint64 r_scause();
  30:src/../h/Riscv.h **** 
  31:src/../h/Riscv.h ****     // write register scause
  32:src/../h/Riscv.h ****     static void w_scause(uint64 scause);
  33:src/../h/Riscv.h **** 
  34:src/../h/Riscv.h ****     // read register sepc
  35:src/../h/Riscv.h ****     static uint64 r_sepc();
  36:src/../h/Riscv.h **** 
  37:src/../h/Riscv.h ****     // write register sepc
  38:src/../h/Riscv.h ****     static void w_sepc(uint64 sepc);
  39:src/../h/Riscv.h **** 
  40:src/../h/Riscv.h ****     // read register stvec
  41:src/../h/Riscv.h ****     static uint64 r_stvec();
  42:src/../h/Riscv.h **** 
  43:src/../h/Riscv.h ****     // write register stvec
  44:src/../h/Riscv.h ****     static void w_stvec(uint64 stvec);
  45:src/../h/Riscv.h **** 
  46:src/../h/Riscv.h ****     // read register stval
  47:src/../h/Riscv.h ****     static uint64 r_stval();
  48:src/../h/Riscv.h **** 
  49:src/../h/Riscv.h ****     // write register stval
  50:src/../h/Riscv.h ****     static void w_stval(uint64 stval);
  51:src/../h/Riscv.h **** 
  52:src/../h/Riscv.h ****     enum BitMaskSip
  53:src/../h/Riscv.h ****     {
  54:src/../h/Riscv.h ****         SIP_SSIE = (1 << 1),
  55:src/../h/Riscv.h ****         SIP_STIE = (1 << 5),
  56:src/../h/Riscv.h ****         SIP_SEIE = (1 << 9),
  57:src/../h/Riscv.h ****     };
  58:src/../h/Riscv.h **** 
  59:src/../h/Riscv.h ****     // mask set register sip
  60:src/../h/Riscv.h ****     static void ms_sip(uint64 mask);
  61:src/../h/Riscv.h **** 
  62:src/../h/Riscv.h ****     // mask clear register sip
  63:src/../h/Riscv.h ****     static void mc_sip(uint64 mask);
  64:src/../h/Riscv.h **** 
  65:src/../h/Riscv.h ****     // read register sip
  66:src/../h/Riscv.h ****     static uint64 r_sip();
  67:src/../h/Riscv.h **** 
  68:src/../h/Riscv.h ****     // write register sip
  69:src/../h/Riscv.h ****     static void w_sip(uint64 sip);
  70:src/../h/Riscv.h **** 
  71:src/../h/Riscv.h ****     enum BitMaskSstatus
  72:src/../h/Riscv.h ****     {
  73:src/../h/Riscv.h ****         SSTATUS_SIE = (1 << 1),
  74:src/../h/Riscv.h ****         SSTATUS_SPIE = (1 << 5),
GAS LISTING /tmp/ccAgszbc.s 			page 3


  75:src/../h/Riscv.h ****         SSTATUS_SPP = (1 << 8),
  76:src/../h/Riscv.h ****     };
  77:src/../h/Riscv.h **** 
  78:src/../h/Riscv.h ****     // mask set register sstatus
  79:src/../h/Riscv.h ****     static void ms_sstatus(uint64 mask);
  80:src/../h/Riscv.h **** 
  81:src/../h/Riscv.h ****     // mask clear register sstatus
  82:src/../h/Riscv.h ****     static void mc_sstatus(uint64 mask);
  83:src/../h/Riscv.h **** 
  84:src/../h/Riscv.h ****     // read register sstatus
  85:src/../h/Riscv.h ****     static uint64 r_sstatus();
  86:src/../h/Riscv.h **** 
  87:src/../h/Riscv.h ****     // write register sstatus
  88:src/../h/Riscv.h ****     static void w_sstatus(uint64 sstatus);
  89:src/../h/Riscv.h **** 
  90:src/../h/Riscv.h **** };
  91:src/../h/Riscv.h **** 
  92:src/../h/Riscv.h **** inline uint64 Riscv::r_scause(){
  93:src/../h/Riscv.h ****     uint64 volatile scause;
  94:src/../h/Riscv.h ****     __asm__ volatile ("csrr %[scause], scause" : [scause] "=r"(scause));
  95:src/../h/Riscv.h ****     return scause;
  96:src/../h/Riscv.h **** }
  97:src/../h/Riscv.h **** 
  98:src/../h/Riscv.h **** inline void Riscv::w_scause(uint64 scause)
  99:src/../h/Riscv.h **** {
 100:src/../h/Riscv.h ****     __asm__ volatile ("csrw scause, %[scause]" : : [scause] "r"(scause));
 101:src/../h/Riscv.h **** }
 102:src/../h/Riscv.h **** 
 103:src/../h/Riscv.h **** inline uint64 Riscv::r_sepc()
 104:src/../h/Riscv.h **** {
 105:src/../h/Riscv.h ****     uint64 volatile sepc;
  34              		.loc 2 105 5
 106:src/../h/Riscv.h ****     __asm__ volatile ("csrr %[sepc], sepc" : [sepc] "=r"(sepc));
  35              		.loc 2 106 5
  36              		.loc 2 106 64 is_stmt 0
  37              	#APP
  38              	# 106 "src/../h/Riscv.h" 1
 107              	    return sepc;
  39              		csrr a5, sepc
  40              	# 0 "" 2
  41              	#NO_APP
  42 0024 2334F4FC 		sd	a5,-56(s0)
  43              		.loc 2 107 5 is_stmt 1
  44              		.loc 2 107 12 is_stmt 0
  45 0028 833484FC 		ld	s1,-56(s0)
  46              	.LVL0:
  47              	.LBE51:
  48              	.LBE50:
   9:src/Riscv.cpp ****     uint64 sstatus = Riscv::r_sstatus();
  49              		.loc 1 9 5 is_stmt 1
  50              	.LBB52:
  51              	.LBB53:
 108:src/../h/Riscv.h **** }
 109:src/../h/Riscv.h **** 
 110:src/../h/Riscv.h **** inline void Riscv::w_sepc(uint64 sepc)
 111:src/../h/Riscv.h **** {
 112:src/../h/Riscv.h ****     __asm__ volatile ("csrw sepc, %[sepc]" : : [sepc] "r"(sepc));
GAS LISTING /tmp/ccAgszbc.s 			page 4


 113:src/../h/Riscv.h **** }
 114:src/../h/Riscv.h **** 
 115:src/../h/Riscv.h **** inline uint64 Riscv::r_stvec()
 116:src/../h/Riscv.h **** {
 117:src/../h/Riscv.h ****     uint64 volatile stvec;
 118:src/../h/Riscv.h ****     __asm__ volatile ("csrr %[stvec], stvec" : [stvec] "=r"(stvec));
 119:src/../h/Riscv.h ****     return stvec;
 120:src/../h/Riscv.h **** }
 121:src/../h/Riscv.h **** 
 122:src/../h/Riscv.h **** inline void Riscv::w_stvec(uint64 stvec)
 123:src/../h/Riscv.h **** {
 124:src/../h/Riscv.h ****     __asm__ volatile ("csrw stvec, %[stvec]" : : [stvec] "r"(stvec));
 125:src/../h/Riscv.h **** }
 126:src/../h/Riscv.h **** 
 127:src/../h/Riscv.h **** inline uint64 Riscv::r_stval()
 128:src/../h/Riscv.h **** {
 129:src/../h/Riscv.h ****     uint64 volatile stval;
 130:src/../h/Riscv.h ****     __asm__ volatile ("csrr %[stval], stval" : [stval] "=r"(stval));
 131:src/../h/Riscv.h ****     return stval;
 132:src/../h/Riscv.h **** }
 133:src/../h/Riscv.h **** 
 134:src/../h/Riscv.h **** inline void Riscv::w_stval(uint64 stval)
 135:src/../h/Riscv.h **** {
 136:src/../h/Riscv.h ****     __asm__ volatile ("csrw stval, %[stval]" : : [stval] "r"(stval));
 137:src/../h/Riscv.h **** }
 138:src/../h/Riscv.h **** 
 139:src/../h/Riscv.h **** inline void Riscv::ms_sip(uint64 mask)
 140:src/../h/Riscv.h **** {
 141:src/../h/Riscv.h ****     __asm__ volatile ("csrs sip, %[mask]" : : [mask] "r"(mask));
 142:src/../h/Riscv.h **** }
 143:src/../h/Riscv.h **** 
 144:src/../h/Riscv.h **** inline void Riscv::mc_sip(uint64 mask)
 145:src/../h/Riscv.h **** {
 146:src/../h/Riscv.h ****     __asm__ volatile ("csrc sip, %[mask]" : : [mask] "r"(mask));
 147:src/../h/Riscv.h **** }
 148:src/../h/Riscv.h **** 
 149:src/../h/Riscv.h **** inline uint64 Riscv::r_sip()
 150:src/../h/Riscv.h **** {
 151:src/../h/Riscv.h ****     uint64 volatile sip;
 152:src/../h/Riscv.h ****     __asm__ volatile ("csrr %[sip], sip" : [sip] "=r"(sip));
 153:src/../h/Riscv.h ****     return sip;
 154:src/../h/Riscv.h **** }
 155:src/../h/Riscv.h **** 
 156:src/../h/Riscv.h **** inline void Riscv::w_sip(uint64 sip)
 157:src/../h/Riscv.h **** {
 158:src/../h/Riscv.h ****     __asm__ volatile ("csrw sip, %[sip]" : : [sip] "r"(sip));
 159:src/../h/Riscv.h **** }
 160:src/../h/Riscv.h **** 
 161:src/../h/Riscv.h **** inline void Riscv::ms_sstatus(uint64 mask)
 162:src/../h/Riscv.h **** {
 163:src/../h/Riscv.h ****     __asm__ volatile ("csrs sstatus, %[mask]" : : [mask] "r"(mask));
 164:src/../h/Riscv.h **** }
 165:src/../h/Riscv.h **** 
 166:src/../h/Riscv.h **** inline void Riscv::mc_sstatus(uint64 mask)
 167:src/../h/Riscv.h **** {
 168:src/../h/Riscv.h ****     __asm__ volatile ("csrc sstatus, %[mask]" : : [mask] "r"(mask));
 169:src/../h/Riscv.h **** }
GAS LISTING /tmp/ccAgszbc.s 			page 5


 170:src/../h/Riscv.h **** 
 171:src/../h/Riscv.h **** inline uint64 Riscv::r_sstatus()
 172:src/../h/Riscv.h **** {
 173:src/../h/Riscv.h ****     uint64 volatile sstatus;
  52              		.loc 2 173 5
 174:src/../h/Riscv.h ****     __asm__ volatile ("csrr %[sstatus], sstatus" : [sstatus] "=r"(sstatus));
  53              		.loc 2 174 5
  54              		.loc 2 174 76 is_stmt 0
  55              	#APP
  56              	# 174 "src/../h/Riscv.h" 1
 175              	    return sstatus;
  57              		csrr a5, sstatus
  58              	# 0 "" 2
  59              	#NO_APP
  60 0030 2330F4FC 		sd	a5,-64(s0)
  61              		.loc 2 175 5 is_stmt 1
  62              		.loc 2 175 12 is_stmt 0
  63 0034 033904FC 		ld	s2,-64(s0)
  64              	.LVL1:
  65              	.LBE53:
  66              	.LBE52:
  10:src/Riscv.cpp **** 
  11:src/Riscv.cpp ****     uint64 sys_code;
  67              		.loc 1 11 5 is_stmt 1
  12:src/Riscv.cpp ****     __asm__ volatile("mv %[sys_code], a0" : [sys_code] "=r" (sys_code));
  68              		.loc 1 12 5
  69              		.loc 1 12 72 is_stmt 0
  70              	#APP
  71              	# 12 "src/Riscv.cpp" 1
  13              	
  72              		mv a5, a0
  73              	# 0 "" 2
  74              	.LVL2:
  14:src/Riscv.cpp ****     uint64 scause = r_scause();
  75              		.loc 1 14 5 is_stmt 1
  76              	#NO_APP
  77              	.LBB54:
  78              	.LBB55:
  93:src/../h/Riscv.h ****     __asm__ volatile ("csrr %[scause], scause" : [scause] "=r"(scause));
  79              		.loc 2 93 5
  94:src/../h/Riscv.h ****     return scause;
  80              		.loc 2 94 5
  94:src/../h/Riscv.h ****     return scause;
  81              		.loc 2 94 72 is_stmt 0
  82              	#APP
  83              	# 94 "src/../h/Riscv.h" 1
  84              		csrr a4, scause
  85              	# 0 "" 2
  86              	#NO_APP
  87 0040 233CE4FA 		sd	a4,-72(s0)
  95:src/../h/Riscv.h **** }
  88              		.loc 2 95 5 is_stmt 1
  95:src/../h/Riscv.h **** }
  89              		.loc 2 95 12 is_stmt 0
  90 0044 033784FB 		ld	a4,-72(s0)
  91              	.LVL3:
  92              	.LBE55:
GAS LISTING /tmp/ccAgszbc.s 			page 6


  93              	.LBE54:
  15:src/Riscv.cpp **** 
  16:src/Riscv.cpp ****     uint64 a2;
  94              		.loc 1 16 5 is_stmt 1
  17:src/Riscv.cpp ****     __asm__ volatile("mv %[sys_code], a2" : [sys_code] "=r" (a2));
  95              		.loc 1 17 5
  96              		.loc 1 17 66 is_stmt 0
  97              	#APP
  98              	# 17 "src/Riscv.cpp" 1
  18              	
  99              		mv a0, a2
 100              	# 0 "" 2
 101              	.LVL4:
  19:src/Riscv.cpp ****     if(scause == 8 || scause == 9) {
 102              		.loc 1 19 5 is_stmt 1
 103              	#NO_APP
 104              	.LBB56:
 105              		.loc 1 19 20 is_stmt 0
 106 004c 130787FF 		addi	a4,a4,-8
 107              	.LVL5:
 108              		.loc 1 19 5
 109 0050 93061000 		li	a3,1
 110 0054 63F2E602 		bleu	a4,a3,.L26
 111              	.LVL6:
 112              	.L1:
 113              	.LBE56:
  20:src/Riscv.cpp ****         switch (sys_code) {
  21:src/Riscv.cpp ****             case 0x01:
  22:src/Riscv.cpp ****                 uint64 size;
  23:src/Riscv.cpp ****                 __asm__ volatile("mv %[size], a1" : [size] "=r"(size));
  24:src/Riscv.cpp ****                 MemoryAllocator::mem_alloc(size);
  25:src/Riscv.cpp ****                 break;
  26:src/Riscv.cpp **** 
  27:src/Riscv.cpp ****             case 0x02:
  28:src/Riscv.cpp ****                 void *ptr;
  29:src/Riscv.cpp ****                 __asm__ volatile("mv %[ptr], a1" : [ptr] "=r"(ptr));
  30:src/Riscv.cpp ****                 MemoryAllocator::mem_free(ptr);
  31:src/Riscv.cpp ****                 break;
  32:src/Riscv.cpp **** 
  33:src/Riscv.cpp ****             case 0x11:
  34:src/Riscv.cpp ****                 TCB **thread, *tt;
  35:src/Riscv.cpp ****                 __asm__ volatile("mv %[thread], a1" : [thread] "=r"(thread));
  36:src/Riscv.cpp ****                 uint64 *body;
  37:src/Riscv.cpp ****                 body = (uint64*) a2;
  38:src/Riscv.cpp ****                 void *arg;
  39:src/Riscv.cpp ****                 __asm__ volatile("mv %[arg], a6" : [arg] "=r"(arg));
  40:src/Riscv.cpp ****                 uint64 *stack;
  41:src/Riscv.cpp ****                 __asm__ volatile("mv %[stack], a7" : [stack] "=r"(stack));
  42:src/Riscv.cpp ****                 tt = TCB::createThread((TCB::Body) body, stack, arg);
  43:src/Riscv.cpp ****                 *thread = tt;
  44:src/Riscv.cpp ****                 if (tt == nullptr)
  45:src/Riscv.cpp ****                     __asm__ volatile("li a0, -1");
  46:src/Riscv.cpp ****                 else {
  47:src/Riscv.cpp ****                     Scheduler::put(*thread);
  48:src/Riscv.cpp ****                     __asm__ volatile("li a0, 0");
  49:src/Riscv.cpp ****                 }
  50:src/Riscv.cpp ****                 break;
GAS LISTING /tmp/ccAgszbc.s 			page 7


  51:src/Riscv.cpp **** 
  52:src/Riscv.cpp ****             case 0x12:
  53:src/Riscv.cpp ****                 TCB::exit();
  54:src/Riscv.cpp ****                 break;
  55:src/Riscv.cpp **** 
  56:src/Riscv.cpp ****             case 0x13:
  57:src/Riscv.cpp ****                 TCB::running->resTimeSlice();
  58:src/Riscv.cpp ****                 TCB::dispatch();
  59:src/Riscv.cpp ****                 break;
  60:src/Riscv.cpp **** 
  61:src/Riscv.cpp ****             case 0x14:
  62:src/Riscv.cpp ****                 TCB *thr;
  63:src/Riscv.cpp ****                 __asm__ volatile("mv %[thr], a1" : [thr] "=r"(thr));
  64:src/Riscv.cpp ****                 TCB::running->join(thr);
  65:src/Riscv.cpp ****                 break;
  66:src/Riscv.cpp **** 
  67:src/Riscv.cpp ****             case 0x21:
  68:src/Riscv.cpp ****                 Sem **handle;
  69:src/Riscv.cpp ****                 __asm__ volatile("mv %[handle], a1" : [handle] "=r"(handle));
  70:src/Riscv.cpp ****                 uint64 init;
  71:src/Riscv.cpp ****                 __asm__ volatile("mv %[init], a7" : [init] "=r"(init));
  72:src/Riscv.cpp ****                 *handle = Sem::createSem(init);
  73:src/Riscv.cpp ****                 if (*handle == nullptr)
  74:src/Riscv.cpp ****                     __asm__ volatile("li a0, -1");
  75:src/Riscv.cpp ****                 else {
  76:src/Riscv.cpp ****                     __asm__ volatile("li a0, 0");
  77:src/Riscv.cpp ****                 }
  78:src/Riscv.cpp ****                 break;
  79:src/Riscv.cpp **** 
  80:src/Riscv.cpp ****             case 0x22:
  81:src/Riscv.cpp ****                 Sem *hand;
  82:src/Riscv.cpp ****                 __asm__ volatile("mv %[hand], a1" : [hand] "=r"(hand));
  83:src/Riscv.cpp ****                 if (hand == nullptr)
  84:src/Riscv.cpp ****                     __asm__ volatile("li a0, -1");
  85:src/Riscv.cpp ****                 else {
  86:src/Riscv.cpp ****                     delete hand;
  87:src/Riscv.cpp ****                     __asm__ volatile("li a0, 0");
  88:src/Riscv.cpp ****                 }
  89:src/Riscv.cpp ****                 break;
  90:src/Riscv.cpp **** 
  91:src/Riscv.cpp ****             case 0x23:
  92:src/Riscv.cpp ****                 Sem *id;
  93:src/Riscv.cpp ****                 __asm__ volatile("mv %[id], a1" : [id] "=r"(id));
  94:src/Riscv.cpp ****                 id->wait();
  95:src/Riscv.cpp ****                 if(TCB::running->retFromClosedSem){
  96:src/Riscv.cpp ****                     TCB::running->retFromClosedSem = false;
  97:src/Riscv.cpp ****                     __asm__ volatile("li a0, -1");
  98:src/Riscv.cpp ****                 }
  99:src/Riscv.cpp ****                 else
 100:src/Riscv.cpp ****                     __asm__ volatile("li a0, 0");
 101:src/Riscv.cpp ****                 break;
 102:src/Riscv.cpp **** 
 103:src/Riscv.cpp ****             case 0x24:
 104:src/Riscv.cpp ****                 Sem *idd;
 105:src/Riscv.cpp ****                 __asm__ volatile("mv %[idd], a1" : [idd] "=r"(idd));
 106:src/Riscv.cpp ****                 if (idd == nullptr)
 107:src/Riscv.cpp ****                     __asm__ volatile("li a0, -1");
GAS LISTING /tmp/ccAgszbc.s 			page 8


 108:src/Riscv.cpp ****                 else {
 109:src/Riscv.cpp ****                     idd->signal();
 110:src/Riscv.cpp ****                     __asm__ volatile("li a0, 0");
 111:src/Riscv.cpp ****                 }
 112:src/Riscv.cpp ****                 break;
 113:src/Riscv.cpp **** 
 114:src/Riscv.cpp ****             case 0x31:
 115:src/Riscv.cpp ****                 uint64 time;
 116:src/Riscv.cpp ****                 __asm__ volatile("mv %[time], a1" : [time] "=r"(time));
 117:src/Riscv.cpp ****                 if(time == 0){
 118:src/Riscv.cpp ****                     TCB::dispatch();
 119:src/Riscv.cpp ****                     __asm__ volatile("li a0, 0");
 120:src/Riscv.cpp ****                     break;
 121:src/Riscv.cpp ****                 }
 122:src/Riscv.cpp **** 
 123:src/Riscv.cpp ****                 if(TCB::running == nullptr)
 124:src/Riscv.cpp ****                     __asm__ volatile("li a0, -1");
 125:src/Riscv.cpp ****                 else
 126:src/Riscv.cpp ****                 {
 127:src/Riscv.cpp ****                     TimerSleep::put(TCB::running, time);
 128:src/Riscv.cpp ****                     TCB::running->setState(TCB::SLEEPING);
 129:src/Riscv.cpp ****                     TCB::dispatch();
 130:src/Riscv.cpp ****                     __asm__ volatile("li a0, 0");
 131:src/Riscv.cpp ****                 }
 132:src/Riscv.cpp ****                 break;
 133:src/Riscv.cpp **** 
 134:src/Riscv.cpp ****             case 0x41:
 135:src/Riscv.cpp ****                 KConsole::getchar();
 136:src/Riscv.cpp ****                 break;
 137:src/Riscv.cpp **** 
 138:src/Riscv.cpp ****             case 0x42:
 139:src/Riscv.cpp ****                 char c;
 140:src/Riscv.cpp ****                 __asm__ volatile("mv %[c], a1" : [c] "=r"(c));
 141:src/Riscv.cpp ****                 KConsole::putchar(c);
 142:src/Riscv.cpp ****                 break;
 143:src/Riscv.cpp ****         }
 144:src/Riscv.cpp **** 
 145:src/Riscv.cpp ****         Riscv::w_sstatus(sstatus);
 146:src/Riscv.cpp ****         Riscv::w_sepc(sepc);
 147:src/Riscv.cpp ****     }
 148:src/Riscv.cpp **** 
 149:src/Riscv.cpp ****     return;
 150:src/Riscv.cpp **** }
 114              		.loc 1 150 1
 115 0058 83308104 		ld	ra,72(sp)
 116              		.cfi_remember_state
 117              		.cfi_restore 1
 118 005c 03340104 		ld	s0,64(sp)
 119              		.cfi_restore 8
 120              		.cfi_def_cfa 2, 80
 121 0060 83348103 		ld	s1,56(sp)
 122              		.cfi_restore 9
 123 0064 03390103 		ld	s2,48(sp)
 124              		.cfi_restore 18
 125              	.LVL7:
 126 0068 83398102 		ld	s3,40(sp)
 127              		.cfi_restore 19
GAS LISTING /tmp/ccAgszbc.s 			page 9


 128 006c 033A0102 		ld	s4,32(sp)
 129              		.cfi_restore 20
 130 0070 13010105 		addi	sp,sp,80
 131              		.cfi_def_cfa_offset 0
 132 0074 67800000 		jr	ra
 133              	.LVL8:
 134              	.L26:
 135              		.cfi_restore_state
 136 0078 93844400 		addi	s1,s1,4
 137              	.LVL9:
  20:src/Riscv.cpp ****         switch (sys_code) {
 138              		.loc 1 20 9 is_stmt 1
 139 007c 13072004 		li	a4,66
 140              	.LVL10:
 141 0080 6366F702 		bgtu	a5,a4,.L3
 142 0084 93972700 		slli	a5,a5,2
 143              	.LVL11:
 144 0088 17070000 		lla	a4,.L5
 144      13070700 
 145 0090 B387E700 		add	a5,a5,a4
 146 0094 83A70700 		lw	a5,0(a5)
 147 0098 B387E700 		add	a5,a5,a4
 148 009c 67800700 		jr	a5
 149              		.section	.rodata
 150              		.align	2
 151              		.align	2
 152              	.L5:
 153 0000 00000000 		.word	.L3-.L5
 154 0004 00000000 		.word	.L17-.L5
 155 0008 00000000 		.word	.L16-.L5
 156 000c 00000000 		.word	.L3-.L5
 157 0010 00000000 		.word	.L3-.L5
 158 0014 00000000 		.word	.L3-.L5
 159 0018 00000000 		.word	.L3-.L5
 160 001c 00000000 		.word	.L3-.L5
 161 0020 00000000 		.word	.L3-.L5
 162 0024 00000000 		.word	.L3-.L5
 163 0028 00000000 		.word	.L3-.L5
 164 002c 00000000 		.word	.L3-.L5
 165 0030 00000000 		.word	.L3-.L5
 166 0034 00000000 		.word	.L3-.L5
 167 0038 00000000 		.word	.L3-.L5
 168 003c 00000000 		.word	.L3-.L5
 169 0040 00000000 		.word	.L3-.L5
 170 0044 00000000 		.word	.L15-.L5
 171 0048 00000000 		.word	.L14-.L5
 172 004c 00000000 		.word	.L13-.L5
 173 0050 00000000 		.word	.L12-.L5
 174 0054 00000000 		.word	.L3-.L5
 175 0058 00000000 		.word	.L3-.L5
 176 005c 00000000 		.word	.L3-.L5
 177 0060 00000000 		.word	.L3-.L5
 178 0064 00000000 		.word	.L3-.L5
 179 0068 00000000 		.word	.L3-.L5
 180 006c 00000000 		.word	.L3-.L5
 181 0070 00000000 		.word	.L3-.L5
 182 0074 00000000 		.word	.L3-.L5
GAS LISTING /tmp/ccAgszbc.s 			page 10


 183 0078 00000000 		.word	.L3-.L5
 184 007c 00000000 		.word	.L3-.L5
 185 0080 00000000 		.word	.L3-.L5
 186 0084 00000000 		.word	.L11-.L5
 187 0088 00000000 		.word	.L10-.L5
 188 008c 00000000 		.word	.L9-.L5
 189 0090 00000000 		.word	.L8-.L5
 190 0094 00000000 		.word	.L3-.L5
 191 0098 00000000 		.word	.L3-.L5
 192 009c 00000000 		.word	.L3-.L5
 193 00a0 00000000 		.word	.L3-.L5
 194 00a4 00000000 		.word	.L3-.L5
 195 00a8 00000000 		.word	.L3-.L5
 196 00ac 00000000 		.word	.L3-.L5
 197 00b0 00000000 		.word	.L3-.L5
 198 00b4 00000000 		.word	.L3-.L5
 199 00b8 00000000 		.word	.L3-.L5
 200 00bc 00000000 		.word	.L3-.L5
 201 00c0 00000000 		.word	.L3-.L5
 202 00c4 00000000 		.word	.L7-.L5
 203 00c8 00000000 		.word	.L3-.L5
 204 00cc 00000000 		.word	.L3-.L5
 205 00d0 00000000 		.word	.L3-.L5
 206 00d4 00000000 		.word	.L3-.L5
 207 00d8 00000000 		.word	.L3-.L5
 208 00dc 00000000 		.word	.L3-.L5
 209 00e0 00000000 		.word	.L3-.L5
 210 00e4 00000000 		.word	.L3-.L5
 211 00e8 00000000 		.word	.L3-.L5
 212 00ec 00000000 		.word	.L3-.L5
 213 00f0 00000000 		.word	.L3-.L5
 214 00f4 00000000 		.word	.L3-.L5
 215 00f8 00000000 		.word	.L3-.L5
 216 00fc 00000000 		.word	.L3-.L5
 217 0100 00000000 		.word	.L3-.L5
 218 0104 00000000 		.word	.L6-.L5
 219 0108 00000000 		.word	.L4-.L5
 220              		.text
 221              	.L17:
 222              	.LBB73:
 223              	.LBB57:
 224              	.LBB58:
  21:src/Riscv.cpp ****                 uint64 size;
 225              		.loc 1 21 13
  22:src/Riscv.cpp ****                 __asm__ volatile("mv %[size], a1" : [size] "=r"(size));
 226              		.loc 1 22 17
  23:src/Riscv.cpp ****                 MemoryAllocator::mem_alloc(size);
 227              		.loc 1 23 17
  23:src/Riscv.cpp ****                 MemoryAllocator::mem_alloc(size);
 228              		.loc 1 23 71 is_stmt 0
 229              	#APP
 230              	# 23 "src/Riscv.cpp" 1
 231              		mv a0, a1
 232              	# 0 "" 2
 233              	.LVL12:
  24:src/Riscv.cpp ****                 break;
 234              		.loc 1 24 17 is_stmt 1
GAS LISTING /tmp/ccAgszbc.s 			page 11


  24:src/Riscv.cpp ****                 break;
 235              		.loc 1 24 43 is_stmt 0
 236              	#NO_APP
 237 00a4 97000000 		call	_ZN15MemoryAllocator9mem_allocEm@plt
 237      E7800000 
 238              	.LVL13:
  25:src/Riscv.cpp **** 
 239              		.loc 1 25 17 is_stmt 1
 240              	.L3:
 241              	.LBE58:
 242              	.LBE57:
 243              	.LBE73:
 145:src/Riscv.cpp ****         Riscv::w_sepc(sepc);
 244              		.loc 1 145 9
 245              	.LBB74:
 246              	.LBB68:
 247              	.LBB69:
 176:src/../h/Riscv.h **** }
 177:src/../h/Riscv.h **** 
 178:src/../h/Riscv.h **** inline void Riscv::w_sstatus(uint64 sstatus)
 179:src/../h/Riscv.h **** {
 180:src/../h/Riscv.h ****     __asm__ volatile ("csrw sstatus, %[sstatus]" : : [sstatus] "r"(sstatus));
 248              		.loc 2 180 5
 249              		.loc 2 180 77 is_stmt 0
 250              	#APP
 251              	# 180 "src/../h/Riscv.h" 1
 181              	}
 252              		csrw sstatus, s2
 253              	# 0 "" 2
 254              	.LVL14:
 255              	#NO_APP
 256              	.LBE69:
 257              	.LBE68:
 258              	.LBE74:
 146:src/Riscv.cpp ****     }
 259              		.loc 1 146 9 is_stmt 1
 260              	.LBB75:
 261              	.LBB70:
 262              	.LBB71:
 112:src/../h/Riscv.h **** }
 263              		.loc 2 112 5
 112:src/../h/Riscv.h **** }
 264              		.loc 2 112 65 is_stmt 0
 265              	#APP
 266              	# 112 "src/../h/Riscv.h" 1
 267              		csrw sepc, s1
 268              	# 0 "" 2
 269              	.LVL15:
 270              	#NO_APP
 271              	.LBE71:
 272              	.LBE70:
 273              	.LBE75:
 149:src/Riscv.cpp **** }
 274              		.loc 1 149 5 is_stmt 1
 275 00b4 6FF05FFA 		j	.L1
 276              	.LVL16:
 277              	.L16:
GAS LISTING /tmp/ccAgszbc.s 			page 12


 278              	.LBB76:
 279              	.LBB72:
 280              	.LBB67:
  27:src/Riscv.cpp ****                 void *ptr;
 281              		.loc 1 27 13
  28:src/Riscv.cpp ****                 __asm__ volatile("mv %[ptr], a1" : [ptr] "=r"(ptr));
 282              		.loc 1 28 17
  29:src/Riscv.cpp ****                 MemoryAllocator::mem_free(ptr);
 283              		.loc 1 29 17
  29:src/Riscv.cpp ****                 MemoryAllocator::mem_free(ptr);
 284              		.loc 1 29 68 is_stmt 0
 285              	#APP
 286              	# 29 "src/Riscv.cpp" 1
 287              		mv a0, a1
 288              	# 0 "" 2
 289              	.LVL17:
  30:src/Riscv.cpp ****                 break;
 290              		.loc 1 30 17 is_stmt 1
  30:src/Riscv.cpp ****                 break;
 291              		.loc 1 30 42 is_stmt 0
 292              	#NO_APP
 293 00bc 97000000 		call	_ZN15MemoryAllocator8mem_freeEPv@plt
 293      E7800000 
 294              	.LVL18:
  31:src/Riscv.cpp **** 
 295              		.loc 1 31 17 is_stmt 1
 296 00c4 6FF09FFE 		j	.L3
 297              	.LVL19:
 298              	.L15:
  33:src/Riscv.cpp ****                 TCB **thread, *tt;
 299              		.loc 1 33 13
  34:src/Riscv.cpp ****                 __asm__ volatile("mv %[thread], a1" : [thread] "=r"(thread));
 300              		.loc 1 34 17
  35:src/Riscv.cpp ****                 uint64 *body;
 301              		.loc 1 35 17
  35:src/Riscv.cpp ****                 uint64 *body;
 302              		.loc 1 35 77 is_stmt 0
 303              	#APP
 304              	# 35 "src/Riscv.cpp" 1
 305              		mv s3, a1
 306              	# 0 "" 2
 307              	.LVL20:
  36:src/Riscv.cpp ****                 body = (uint64*) a2;
 308              		.loc 1 36 17 is_stmt 1
  37:src/Riscv.cpp ****                 void *arg;
 309              		.loc 1 37 17
  38:src/Riscv.cpp ****                 __asm__ volatile("mv %[arg], a6" : [arg] "=r"(arg));
 310              		.loc 1 38 17
  39:src/Riscv.cpp ****                 uint64 *stack;
 311              		.loc 1 39 17
  39:src/Riscv.cpp ****                 uint64 *stack;
 312              		.loc 1 39 68 is_stmt 0
 313              	# 39 "src/Riscv.cpp" 1
 314              		mv a2, a6
 315              	# 0 "" 2
 316              	.LVL21:
  40:src/Riscv.cpp ****                 __asm__ volatile("mv %[stack], a7" : [stack] "=r"(stack));
GAS LISTING /tmp/ccAgszbc.s 			page 13


 317              		.loc 1 40 17 is_stmt 1
  41:src/Riscv.cpp ****                 tt = TCB::createThread((TCB::Body) body, stack, arg);
 318              		.loc 1 41 17
  41:src/Riscv.cpp ****                 tt = TCB::createThread((TCB::Body) body, stack, arg);
 319              		.loc 1 41 74 is_stmt 0
 320              	# 41 "src/Riscv.cpp" 1
 321              		mv a1, a7
 322              	# 0 "" 2
 323              	.LVL22:
  42:src/Riscv.cpp ****                 *thread = tt;
 324              		.loc 1 42 17 is_stmt 1
  42:src/Riscv.cpp ****                 *thread = tt;
 325              		.loc 1 42 39 is_stmt 0
 326              	#NO_APP
 327 00d4 97000000 		call	_ZN3TCB12createThreadEPFvPvEPmS0_@plt
 327      E7800000 
 328              	.LVL23:
  43:src/Riscv.cpp ****                 if (tt == nullptr)
 329              		.loc 1 43 17 is_stmt 1
  43:src/Riscv.cpp ****                 if (tt == nullptr)
 330              		.loc 1 43 25 is_stmt 0
 331 00dc 23B0A900 		sd	a0,0(s3)
  44:src/Riscv.cpp ****                     __asm__ volatile("li a0, -1");
 332              		.loc 1 44 17 is_stmt 1
 333 00e0 630A0500 		beqz	a0,.L27
  47:src/Riscv.cpp ****                     __asm__ volatile("li a0, 0");
 334              		.loc 1 47 21
  47:src/Riscv.cpp ****                     __asm__ volatile("li a0, 0");
 335              		.loc 1 47 35 is_stmt 0
 336 00e4 97000000 		call	_ZN9Scheduler3putEP3TCB@plt
 336      E7800000 
 337              	.LVL24:
  48:src/Riscv.cpp ****                 }
 338              		.loc 1 48 21 is_stmt 1
  48:src/Riscv.cpp ****                 }
 339              		.loc 1 48 49 is_stmt 0
 340              	#APP
 341              	# 48 "src/Riscv.cpp" 1
 342              		li a0, 0
 343              	# 0 "" 2
 344              	#NO_APP
 345 00f0 6FF0DFFB 		j	.L3
 346              	.LVL25:
 347              	.L27:
  45:src/Riscv.cpp ****                 else {
 348              		.loc 1 45 21 is_stmt 1
  45:src/Riscv.cpp ****                 else {
 349              		.loc 1 45 50 is_stmt 0
 350              	#APP
 351              	# 45 "src/Riscv.cpp" 1
 352              		li a0, -1
 353              	# 0 "" 2
 354              	#NO_APP
 355 00f8 6FF05FFB 		j	.L3
 356              	.LVL26:
 357              	.L14:
  52:src/Riscv.cpp ****                 TCB::exit();
GAS LISTING /tmp/ccAgszbc.s 			page 14


 358              		.loc 1 52 13 is_stmt 1
  53:src/Riscv.cpp ****                 break;
 359              		.loc 1 53 17
  53:src/Riscv.cpp ****                 break;
 360              		.loc 1 53 26 is_stmt 0
 361 00fc 97000000 		call	_ZN3TCB4exitEv@plt
 361      E7800000 
 362              	.LVL27:
  54:src/Riscv.cpp **** 
 363              		.loc 1 54 17 is_stmt 1
 364 0104 6FF09FFA 		j	.L3
 365              	.LVL28:
 366              	.L13:
  56:src/Riscv.cpp ****                 TCB::running->resTimeSlice();
 367              		.loc 1 56 13
  57:src/Riscv.cpp ****                 TCB::dispatch();
 368              		.loc 1 57 17
  57:src/Riscv.cpp ****                 TCB::dispatch();
 369              		.loc 1 57 43 is_stmt 0
 370 0108 97070000 		la	a5,_ZN3TCB7runningE
 370      83B70700 
 371 0110 83B70700 		ld	a5,0(a5)
 372              	.LVL29:
 373              	.LBB59:
 374              	.LBB60:
 375              		.file 3 "src/../h/TCB.h"
   1:src/../h/TCB.h **** //
   2:src/../h/TCB.h **** // Created by os on 7/17/23.
   3:src/../h/TCB.h **** //
   4:src/../h/TCB.h **** 
   5:src/../h/TCB.h **** #ifndef PROJECT_BASE_TCB_H
   6:src/../h/TCB.h **** #define PROJECT_BASE_TCB_H
   7:src/../h/TCB.h **** 
   8:src/../h/TCB.h **** #include "Scheduler.h"
   9:src/../h/TCB.h **** #include "Riscv.h"
  10:src/../h/TCB.h **** #include "Sem.h"
  11:src/../h/TCB.h **** #include "syscall_c.hpp"
  12:src/../h/TCB.h **** 
  13:src/../h/TCB.h **** class Sem;
  14:src/../h/TCB.h **** 
  15:src/../h/TCB.h **** class TCB {
  16:src/../h/TCB.h **** public:
  17:src/../h/TCB.h ****     using Body = void (*)(void*);
  18:src/../h/TCB.h ****     enum STATE{FINISHED, READY, BLOCKED, SLEEPING, IDLE};
  19:src/../h/TCB.h **** 
  20:src/../h/TCB.h ****     ~TCB(){
  21:src/../h/TCB.h ****         running->stack -= (DEFAULT_STACK_SIZE - 1);
  22:src/../h/TCB.h ****         MemoryAllocator::mem_free(running->stack);
  23:src/../h/TCB.h ****         //mozda bi trebao syscall
  24:src/../h/TCB.h ****     }
  25:src/../h/TCB.h **** 
  26:src/../h/TCB.h ****     void *operator new(size_t size);
  27:src/../h/TCB.h ****     void operator delete(void *ptr);
  28:src/../h/TCB.h **** 
  29:src/../h/TCB.h **** private:
  30:src/../h/TCB.h ****     TCB(Body body, uint64* stack, void* arg, uint64 timeSlice) :
  31:src/../h/TCB.h ****         body(body),
GAS LISTING /tmp/ccAgszbc.s 			page 15


  32:src/../h/TCB.h ****         stack(stack),
  33:src/../h/TCB.h ****         context({(uint64) threadWrapper,
  34:src/../h/TCB.h ****                  (uint64) stack
  35:src/../h/TCB.h ****                 }),
  36:src/../h/TCB.h ****         arg(arg),
  37:src/../h/TCB.h ****         timeSlice(timeSlice),
  38:src/../h/TCB.h ****         restimeSlice(timeSlice),
  39:src/../h/TCB.h ****         state(READY)
  40:src/../h/TCB.h ****     {
  41:src/../h/TCB.h ****         head = nullptr;
  42:src/../h/TCB.h ****         retFromClosedSem = false;
  43:src/../h/TCB.h ****     }
  44:src/../h/TCB.h **** 
  45:src/../h/TCB.h ****     struct Context
  46:src/../h/TCB.h ****     {
  47:src/../h/TCB.h ****         uint64 ra;
  48:src/../h/TCB.h ****         uint64 sp;
  49:src/../h/TCB.h ****     };
  50:src/../h/TCB.h **** 
  51:src/../h/TCB.h ****     struct Node{
  52:src/../h/TCB.h ****         Sem* data;
  53:src/../h/TCB.h ****         Node* next;
  54:src/../h/TCB.h **** 
  55:src/../h/TCB.h ****         void *operator new(size_t size);
  56:src/../h/TCB.h ****         void operator delete(void *ptr);
  57:src/../h/TCB.h ****     };
  58:src/../h/TCB.h **** 
  59:src/../h/TCB.h ****     void pushJoinSem(Sem* data);
  60:src/../h/TCB.h ****     void notifayAllJoinSem();
  61:src/../h/TCB.h ****     void join(TCB* thread);
  62:src/../h/TCB.h **** 
  63:src/../h/TCB.h ****     static TCB *running;
  64:src/../h/TCB.h **** 
  65:src/../h/TCB.h ****     Body body;
  66:src/../h/TCB.h ****     uint64 *stack;
  67:src/../h/TCB.h ****     Context context;
  68:src/../h/TCB.h ****     void* arg;
  69:src/../h/TCB.h ****     uint64 timeSlice;
  70:src/../h/TCB.h ****     uint64 restimeSlice;
  71:src/../h/TCB.h ****     STATE state;
  72:src/../h/TCB.h ****     Node * head;
  73:src/../h/TCB.h ****     bool retFromClosedSem;
  74:src/../h/TCB.h **** 
  75:src/../h/TCB.h ****     bool isFinished() const { return state == STATE::FINISHED; }
  76:src/../h/TCB.h ****     void setState(STATE value) { state = value; }
  77:src/../h/TCB.h ****     uint64 getTimeSlice() const { return timeSlice; }
  78:src/../h/TCB.h ****     void setTimeSlice(uint64 time) { restimeSlice = time; }
  79:src/../h/TCB.h ****     void resTimeSlice() { timeSlice = restimeSlice; }
 376              		.loc 3 79 27 is_stmt 1
 377              		.loc 3 79 39 is_stmt 0
 378 0114 03B70703 		ld	a4,48(a5)
 379              		.loc 3 79 37
 380 0118 23B4E702 		sd	a4,40(a5)
 381              	.LVL30:
 382              	.LBE60:
 383              	.LBE59:
  58:src/Riscv.cpp ****                 break;
GAS LISTING /tmp/ccAgszbc.s 			page 16


 384              		.loc 1 58 17 is_stmt 1
  58:src/Riscv.cpp ****                 break;
 385              		.loc 1 58 30 is_stmt 0
 386 011c 97000000 		call	_ZN3TCB8dispatchEv@plt
 386      E7800000 
 387              	.LVL31:
  59:src/Riscv.cpp **** 
 388              		.loc 1 59 17 is_stmt 1
 389 0124 6FF09FF8 		j	.L3
 390              	.LVL32:
 391              	.L12:
  61:src/Riscv.cpp ****                 TCB *thr;
 392              		.loc 1 61 13
  62:src/Riscv.cpp ****                 __asm__ volatile("mv %[thr], a1" : [thr] "=r"(thr));
 393              		.loc 1 62 17
  63:src/Riscv.cpp ****                 TCB::running->join(thr);
 394              		.loc 1 63 17
  63:src/Riscv.cpp ****                 TCB::running->join(thr);
 395              		.loc 1 63 68 is_stmt 0
 396              	#APP
 397              	# 63 "src/Riscv.cpp" 1
 398              		mv a1, a1
 399              	# 0 "" 2
 400              	.LVL33:
  64:src/Riscv.cpp ****                 break;
 401              		.loc 1 64 17 is_stmt 1
  64:src/Riscv.cpp ****                 break;
 402              		.loc 1 64 35 is_stmt 0
 403              	#NO_APP
 404 012c 97070000 		la	a5,_ZN3TCB7runningE
 404      83B70700 
 405 0134 03B50700 		ld	a0,0(a5)
 406              	.LVL34:
 407 0138 97000000 		call	_ZN3TCB4joinEPS_@plt
 407      E7800000 
 408              	.LVL35:
  65:src/Riscv.cpp **** 
 409              		.loc 1 65 17 is_stmt 1
 410 0140 6FF0DFF6 		j	.L3
 411              	.LVL36:
 412              	.L11:
  67:src/Riscv.cpp ****                 Sem **handle;
 413              		.loc 1 67 13
  68:src/Riscv.cpp ****                 __asm__ volatile("mv %[handle], a1" : [handle] "=r"(handle));
 414              		.loc 1 68 17
  69:src/Riscv.cpp ****                 uint64 init;
 415              		.loc 1 69 17
  69:src/Riscv.cpp ****                 uint64 init;
 416              		.loc 1 69 77 is_stmt 0
 417              	#APP
 418              	# 69 "src/Riscv.cpp" 1
 419              		mv s4, a1
 420              	# 0 "" 2
 421              	.LVL37:
  70:src/Riscv.cpp ****                 __asm__ volatile("mv %[init], a7" : [init] "=r"(init));
 422              		.loc 1 70 17 is_stmt 1
  71:src/Riscv.cpp ****                 *handle = Sem::createSem(init);
GAS LISTING /tmp/ccAgszbc.s 			page 17


 423              		.loc 1 71 17
  71:src/Riscv.cpp ****                 *handle = Sem::createSem(init);
 424              		.loc 1 71 71 is_stmt 0
 425              	# 71 "src/Riscv.cpp" 1
 426              		mv s3, a7
 427              	# 0 "" 2
 428              	.LVL38:
  72:src/Riscv.cpp ****                 if (*handle == nullptr)
 429              		.loc 1 72 17 is_stmt 1
  72:src/Riscv.cpp ****                 if (*handle == nullptr)
 430              		.loc 1 72 41 is_stmt 0
 431              	#NO_APP
 432 014c 9B890900 		sext.w	s3,s3
 433              	.LVL39:
 434              	.LBB61:
 435              	.LBB62:
 436              		.file 4 "src/../h/Sem.h"
   1:src/../h/Sem.h **** //
   2:src/../h/Sem.h **** // Created by os on 7/18/23.
   3:src/../h/Sem.h **** //
   4:src/../h/Sem.h **** 
   5:src/../h/Sem.h **** #ifndef PROJECT_BASE_SEM_H
   6:src/../h/Sem.h **** #define PROJECT_BASE_SEM_H
   7:src/../h/Sem.h **** 
   8:src/../h/Sem.h **** #include "TCB.h"
   9:src/../h/Sem.h **** 
  10:src/../h/Sem.h **** class Sem {
  11:src/../h/Sem.h **** private:
  12:src/../h/Sem.h ****     Sem (int initValue=1) : val(initValue) {
  13:src/../h/Sem.h ****         head = tail = 0;
  14:src/../h/Sem.h ****     }
  15:src/../h/Sem.h **** 
  16:src/../h/Sem.h ****     ~Sem();
  17:src/../h/Sem.h ****     void wait ();
  18:src/../h/Sem.h ****     void signal ();
  19:src/../h/Sem.h ****     void block ();
  20:src/../h/Sem.h ****     void deblock ();
  21:src/../h/Sem.h **** 
  22:src/../h/Sem.h ****     void put(TCB* data);
  23:src/../h/Sem.h ****     TCB* get();
  24:src/../h/Sem.h **** 
  25:src/../h/Sem.h ****     static Sem* createSem(int value){
  26:src/../h/Sem.h ****         return new Sem(value);
 437              		.loc 4 26 9 is_stmt 1
 438              		.loc 4 26 29 is_stmt 0
 439 0150 13058001 		li	a0,24
 440              	.LVL40:
 441 0154 97000000 		call	_ZN3SemnwEm@plt
 441      E7800000 
 442              	.LVL41:
 443              	.LBB63:
 444              	.LBB64:
  12:src/../h/Sem.h ****         head = tail = 0;
 445              		.loc 4 12 42
 446 015c 23283501 		sw	s3,16(a0)
  13:src/../h/Sem.h ****     }
 447              		.loc 4 13 9 is_stmt 1
GAS LISTING /tmp/ccAgszbc.s 			page 18


  13:src/../h/Sem.h ****     }
 448              		.loc 4 13 21 is_stmt 0
 449 0160 23340500 		sd	zero,8(a0)
  13:src/../h/Sem.h ****     }
 450              		.loc 4 13 14
 451 0164 23300500 		sd	zero,0(a0)
 452              	.LVL42:
 453              	.LBE64:
 454              	.LBE63:
 455              	.LBE62:
 456              	.LBE61:
  72:src/Riscv.cpp ****                 if (*handle == nullptr)
 457              		.loc 1 72 25
 458 0168 2330AA00 		sd	a0,0(s4)
  73:src/Riscv.cpp ****                     __asm__ volatile("li a0, -1");
 459              		.loc 1 73 17 is_stmt 1
 460 016c 63060500 		beqz	a0,.L28
  76:src/Riscv.cpp ****                 }
 461              		.loc 1 76 21
  76:src/Riscv.cpp ****                 }
 462              		.loc 1 76 49 is_stmt 0
 463              	#APP
 464              	# 76 "src/Riscv.cpp" 1
 465              		li a0, 0
 466              	# 0 "" 2
 467              	#NO_APP
 468 0174 6FF09FF3 		j	.L3
 469              	.L28:
  74:src/Riscv.cpp ****                 else {
 470              		.loc 1 74 21 is_stmt 1
  74:src/Riscv.cpp ****                 else {
 471              		.loc 1 74 50 is_stmt 0
 472              	#APP
 473              	# 74 "src/Riscv.cpp" 1
 474              		li a0, -1
 475              	# 0 "" 2
 476              	#NO_APP
 477 017c 6FF01FF3 		j	.L3
 478              	.LVL43:
 479              	.L10:
  80:src/Riscv.cpp ****                 Sem *hand;
 480              		.loc 1 80 13 is_stmt 1
  81:src/Riscv.cpp ****                 __asm__ volatile("mv %[hand], a1" : [hand] "=r"(hand));
 481              		.loc 1 81 17
  82:src/Riscv.cpp ****                 if (hand == nullptr)
 482              		.loc 1 82 17
  82:src/Riscv.cpp ****                 if (hand == nullptr)
 483              		.loc 1 82 71 is_stmt 0
 484              	#APP
 485              	# 82 "src/Riscv.cpp" 1
 486              		mv s3, a1
 487              	# 0 "" 2
 488              	.LVL44:
  83:src/Riscv.cpp ****                     __asm__ volatile("li a0, -1");
 489              		.loc 1 83 17 is_stmt 1
 490              	#NO_APP
 491 0184 63820902 		beqz	s3,.L29
GAS LISTING /tmp/ccAgszbc.s 			page 19


  86:src/Riscv.cpp ****                     __asm__ volatile("li a0, 0");
 492              		.loc 1 86 21 discriminator 1
  86:src/Riscv.cpp ****                     __asm__ volatile("li a0, 0");
 493              		.loc 1 86 28 is_stmt 0 discriminator 1
 494 0188 13850900 		mv	a0,s3
 495              	.LVL45:
 496 018c 97000000 		call	_ZN3SemD1Ev@plt
 496      E7800000 
 497              	.LVL46:
 498 0194 13850900 		mv	a0,s3
 499 0198 97000000 		call	_ZN3SemdlEPv@plt
 499      E7800000 
 500              	.LVL47:
  87:src/Riscv.cpp ****                 }
 501              		.loc 1 87 21 is_stmt 1 discriminator 1
  87:src/Riscv.cpp ****                 }
 502              		.loc 1 87 49 is_stmt 0 discriminator 1
 503              	#APP
 504              	# 87 "src/Riscv.cpp" 1
 505              		li a0, 0
 506              	# 0 "" 2
 507              	#NO_APP
 508 01a4 6FF09FF0 		j	.L3
 509              	.LVL48:
 510              	.L29:
  84:src/Riscv.cpp ****                 else {
 511              		.loc 1 84 21 is_stmt 1
  84:src/Riscv.cpp ****                 else {
 512              		.loc 1 84 50 is_stmt 0
 513              	#APP
 514              	# 84 "src/Riscv.cpp" 1
 515              		li a0, -1
 516              	# 0 "" 2
 517              	#NO_APP
 518 01ac 6FF01FF0 		j	.L3
 519              	.LVL49:
 520              	.L9:
  91:src/Riscv.cpp ****                 Sem *id;
 521              		.loc 1 91 13 is_stmt 1
  92:src/Riscv.cpp ****                 __asm__ volatile("mv %[id], a1" : [id] "=r"(id));
 522              		.loc 1 92 17
  93:src/Riscv.cpp ****                 id->wait();
 523              		.loc 1 93 17
  93:src/Riscv.cpp ****                 id->wait();
 524              		.loc 1 93 65 is_stmt 0
 525              	#APP
 526              	# 93 "src/Riscv.cpp" 1
 527              		mv a0, a1
 528              	# 0 "" 2
 529              	.LVL50:
  94:src/Riscv.cpp ****                 if(TCB::running->retFromClosedSem){
 530              		.loc 1 94 17 is_stmt 1
  94:src/Riscv.cpp ****                 if(TCB::running->retFromClosedSem){
 531              		.loc 1 94 25 is_stmt 0
 532              	#NO_APP
 533 01b4 97000000 		call	_ZN3Sem4waitEv@plt
 533      E7800000 
GAS LISTING /tmp/ccAgszbc.s 			page 20


 534              	.LVL51:
  95:src/Riscv.cpp ****                     TCB::running->retFromClosedSem = false;
 535              		.loc 1 95 17 is_stmt 1
  95:src/Riscv.cpp ****                     TCB::running->retFromClosedSem = false;
 536              		.loc 1 95 34 is_stmt 0
 537 01bc 97070000 		la	a5,_ZN3TCB7runningE
 537      83B70700 
 538 01c4 83B70700 		ld	a5,0(a5)
 539 01c8 03C78704 		lbu	a4,72(a5)
  95:src/Riscv.cpp ****                     TCB::running->retFromClosedSem = false;
 540              		.loc 1 95 17
 541 01cc 63080700 		beqz	a4,.L21
  96:src/Riscv.cpp ****                     __asm__ volatile("li a0, -1");
 542              		.loc 1 96 21 is_stmt 1
  96:src/Riscv.cpp ****                     __asm__ volatile("li a0, -1");
 543              		.loc 1 96 52 is_stmt 0
 544 01d0 23840704 		sb	zero,72(a5)
  97:src/Riscv.cpp ****                 }
 545              		.loc 1 97 21 is_stmt 1
  97:src/Riscv.cpp ****                 }
 546              		.loc 1 97 50 is_stmt 0
 547              	#APP
 548              	# 97 "src/Riscv.cpp" 1
 549              		li a0, -1
 550              	# 0 "" 2
 551              	#NO_APP
 552 01d8 6FF05FED 		j	.L3
 553              	.L21:
 100:src/Riscv.cpp ****                 break;
 554              		.loc 1 100 21 is_stmt 1
 100:src/Riscv.cpp ****                 break;
 555              		.loc 1 100 49 is_stmt 0
 556              	#APP
 557              	# 100 "src/Riscv.cpp" 1
 558              		li a0, 0
 559              	# 0 "" 2
 560              	#NO_APP
 561 01e0 6FF0DFEC 		j	.L3
 562              	.LVL52:
 563              	.L8:
 103:src/Riscv.cpp ****                 Sem *idd;
 564              		.loc 1 103 13 is_stmt 1
 104:src/Riscv.cpp ****                 __asm__ volatile("mv %[idd], a1" : [idd] "=r"(idd));
 565              		.loc 1 104 17
 105:src/Riscv.cpp ****                 if (idd == nullptr)
 566              		.loc 1 105 17
 105:src/Riscv.cpp ****                 if (idd == nullptr)
 567              		.loc 1 105 68 is_stmt 0
 568              	#APP
 569              	# 105 "src/Riscv.cpp" 1
 570              		mv a0, a1
 571              	# 0 "" 2
 572              	.LVL53:
 106:src/Riscv.cpp ****                     __asm__ volatile("li a0, -1");
 573              		.loc 1 106 17 is_stmt 1
 574              	#NO_APP
 575 01e8 630A0500 		beqz	a0,.L30
GAS LISTING /tmp/ccAgszbc.s 			page 21


 109:src/Riscv.cpp ****                     __asm__ volatile("li a0, 0");
 576              		.loc 1 109 21
 109:src/Riscv.cpp ****                     __asm__ volatile("li a0, 0");
 577              		.loc 1 109 32 is_stmt 0
 578 01ec 97000000 		call	_ZN3Sem6signalEv@plt
 578      E7800000 
 579              	.LVL54:
 110:src/Riscv.cpp ****                 }
 580              		.loc 1 110 21 is_stmt 1
 110:src/Riscv.cpp ****                 }
 581              		.loc 1 110 49 is_stmt 0
 582              	#APP
 583              	# 110 "src/Riscv.cpp" 1
 584              		li a0, 0
 585              	# 0 "" 2
 586              	#NO_APP
 587 01f8 6FF05FEB 		j	.L3
 588              	.LVL55:
 589              	.L30:
 107:src/Riscv.cpp ****                 else {
 590              		.loc 1 107 21 is_stmt 1
 107:src/Riscv.cpp ****                 else {
 591              		.loc 1 107 50 is_stmt 0
 592              	#APP
 593              	# 107 "src/Riscv.cpp" 1
 594              		li a0, -1
 595              	# 0 "" 2
 596              	#NO_APP
 597 0200 6FF0DFEA 		j	.L3
 598              	.LVL56:
 599              	.L7:
 114:src/Riscv.cpp ****                 uint64 time;
 600              		.loc 1 114 13 is_stmt 1
 115:src/Riscv.cpp ****                 __asm__ volatile("mv %[time], a1" : [time] "=r"(time));
 601              		.loc 1 115 17
 116:src/Riscv.cpp ****                 if(time == 0){
 602              		.loc 1 116 17
 116:src/Riscv.cpp ****                 if(time == 0){
 603              		.loc 1 116 71 is_stmt 0
 604              	#APP
 605              	# 116 "src/Riscv.cpp" 1
 606              		mv a1, a1
 607              	# 0 "" 2
 608              	.LVL57:
 117:src/Riscv.cpp ****                     TCB::dispatch();
 609              		.loc 1 117 17 is_stmt 1
 610              	#NO_APP
 611 0208 63800504 		beqz	a1,.L31
 123:src/Riscv.cpp ****                     __asm__ volatile("li a0, -1");
 612              		.loc 1 123 17
 123:src/Riscv.cpp ****                     __asm__ volatile("li a0, -1");
 613              		.loc 1 123 33 is_stmt 0
 614 020c 97070000 		la	a5,_ZN3TCB7runningE
 614      83B70700 
 615 0214 03B50700 		ld	a0,0(a5)
 616              	.LVL58:
 123:src/Riscv.cpp ****                     __asm__ volatile("li a0, -1");
GAS LISTING /tmp/ccAgszbc.s 			page 22


 617              		.loc 1 123 17
 618 0218 63000504 		beqz	a0,.L32
 127:src/Riscv.cpp ****                     TCB::running->setState(TCB::SLEEPING);
 619              		.loc 1 127 21 is_stmt 1
 127:src/Riscv.cpp ****                     TCB::running->setState(TCB::SLEEPING);
 620              		.loc 1 127 36 is_stmt 0
 621 021c 97000000 		call	_ZN10TimerSleep3putEP3TCBm@plt
 621      E7800000 
 622              	.LVL59:
 128:src/Riscv.cpp ****                     TCB::dispatch();
 623              		.loc 1 128 21 is_stmt 1
 128:src/Riscv.cpp ****                     TCB::dispatch();
 624              		.loc 1 128 43 is_stmt 0
 625 0224 97070000 		la	a5,_ZN3TCB7runningE
 625      83B70700 
 626 022c 83B70700 		ld	a5,0(a5)
 627              	.LVL60:
 628              	.LBB65:
 629              	.LBB66:
  76:src/../h/TCB.h ****     uint64 getTimeSlice() const { return timeSlice; }
 630              		.loc 3 76 34 is_stmt 1
  76:src/../h/TCB.h ****     uint64 getTimeSlice() const { return timeSlice; }
 631              		.loc 3 76 40 is_stmt 0
 632 0230 13073000 		li	a4,3
 633 0234 23ACE702 		sw	a4,56(a5)
 634              	.LVL61:
 635              	.LBE66:
 636              	.LBE65:
 129:src/Riscv.cpp ****                     __asm__ volatile("li a0, 0");
 637              		.loc 1 129 21 is_stmt 1
 129:src/Riscv.cpp ****                     __asm__ volatile("li a0, 0");
 638              		.loc 1 129 34 is_stmt 0
 639 0238 97000000 		call	_ZN3TCB8dispatchEv@plt
 639      E7800000 
 640              	.LVL62:
 130:src/Riscv.cpp ****                 }
 641              		.loc 1 130 21 is_stmt 1
 130:src/Riscv.cpp ****                 }
 642              		.loc 1 130 49 is_stmt 0
 643              	#APP
 644              	# 130 "src/Riscv.cpp" 1
 645              		li a0, 0
 646              	# 0 "" 2
 647              	#NO_APP
 648 0244 6FF09FE6 		j	.L3
 649              	.LVL63:
 650              	.L31:
 118:src/Riscv.cpp ****                     __asm__ volatile("li a0, 0");
 651              		.loc 1 118 21 is_stmt 1
 118:src/Riscv.cpp ****                     __asm__ volatile("li a0, 0");
 652              		.loc 1 118 34 is_stmt 0
 653 0248 97000000 		call	_ZN3TCB8dispatchEv@plt
 653      E7800000 
 654              	.LVL64:
 119:src/Riscv.cpp ****                     break;
 655              		.loc 1 119 21 is_stmt 1
 119:src/Riscv.cpp ****                     break;
GAS LISTING /tmp/ccAgszbc.s 			page 23


 656              		.loc 1 119 49 is_stmt 0
 657              	#APP
 658              	# 119 "src/Riscv.cpp" 1
 120:src/Riscv.cpp ****                 }
 659              		li a0, 0
 660              	# 0 "" 2
 661              		.loc 1 120 21 is_stmt 1
 662              	#NO_APP
 663 0254 6FF09FE5 		j	.L3
 664              	.LVL65:
 665              	.L32:
 124:src/Riscv.cpp ****                 else
 666              		.loc 1 124 21
 124:src/Riscv.cpp ****                 else
 667              		.loc 1 124 50 is_stmt 0
 668              	#APP
 669              	# 124 "src/Riscv.cpp" 1
 670              		li a0, -1
 671              	# 0 "" 2
 672              	#NO_APP
 673 025c 6FF01FE5 		j	.L3
 674              	.LVL66:
 675              	.L6:
 134:src/Riscv.cpp ****                 KConsole::getchar();
 676              		.loc 1 134 13 is_stmt 1
 135:src/Riscv.cpp ****                 break;
 677              		.loc 1 135 17
 135:src/Riscv.cpp ****                 break;
 678              		.loc 1 135 34 is_stmt 0
 679 0260 97000000 		call	_ZN8KConsole7getcharEv@plt
 679      E7800000 
 680              	.LVL67:
 136:src/Riscv.cpp **** 
 681              		.loc 1 136 17 is_stmt 1
 682 0268 6FF05FE4 		j	.L3
 683              	.LVL68:
 684              	.L4:
 138:src/Riscv.cpp ****                 char c;
 685              		.loc 1 138 13
 139:src/Riscv.cpp ****                 __asm__ volatile("mv %[c], a1" : [c] "=r"(c));
 686              		.loc 1 139 17
 140:src/Riscv.cpp ****                 KConsole::putchar(c);
 687              		.loc 1 140 17
 140:src/Riscv.cpp ****                 KConsole::putchar(c);
 688              		.loc 1 140 62 is_stmt 0
 689              	#APP
 690              	# 140 "src/Riscv.cpp" 1
 691              		mv a0, a1
 692              	# 0 "" 2
 693              	.LVL69:
 141:src/Riscv.cpp ****                 break;
 694              		.loc 1 141 17 is_stmt 1
 141:src/Riscv.cpp ****                 break;
 695              		.loc 1 141 34 is_stmt 0
 696              	#NO_APP
 697 0270 1375F50F 		andi	a0,a0,0xff
 698 0274 97000000 		call	_ZN8KConsole7putcharEc@plt
GAS LISTING /tmp/ccAgszbc.s 			page 24


 698      E7800000 
 699              	.LVL70:
 142:src/Riscv.cpp ****         }
 700              		.loc 1 142 17 is_stmt 1
 701 027c 6FF01FE3 		j	.L3
 702              	.LBE67:
 703              	.LBE72:
 704              	.LBE76:
 705              		.cfi_endproc
 706              	.LFE35:
 708              		.align	2
 709              		.globl	_ZN5Riscv12timerHandlerEv
 711              	_ZN5Riscv12timerHandlerEv:
 712              	.LFB36:
 151:src/Riscv.cpp **** 
 152:src/Riscv.cpp **** void Riscv::timerHandler() {
 713              		.loc 1 152 28
 714              		.cfi_startproc
 715 0280 130101FC 		addi	sp,sp,-64
 716              		.cfi_def_cfa_offset 64
 717 0284 233C1102 		sd	ra,56(sp)
 718 0288 23388102 		sd	s0,48(sp)
 719 028c 23349102 		sd	s1,40(sp)
 720 0290 23302103 		sd	s2,32(sp)
 721 0294 233C3101 		sd	s3,24(sp)
 722              		.cfi_offset 1, -8
 723              		.cfi_offset 8, -16
 724              		.cfi_offset 9, -24
 725              		.cfi_offset 18, -32
 726              		.cfi_offset 19, -40
 727 0298 13040104 		addi	s0,sp,64
 728              		.cfi_def_cfa 8, 0
 153:src/Riscv.cpp ****     uint64 sepc = Riscv::r_sepc();
 729              		.loc 1 153 5
 730              	.LBB77:
 731              	.LBB78:
 105:src/../h/Riscv.h ****     __asm__ volatile ("csrr %[sepc], sepc" : [sepc] "=r"(sepc));
 732              		.loc 2 105 5
 106:src/../h/Riscv.h ****     return sepc;
 733              		.loc 2 106 5
 106:src/../h/Riscv.h ****     return sepc;
 734              		.loc 2 106 64 is_stmt 0
 735              	#APP
 736              	# 106 "src/../h/Riscv.h" 1
 737              		csrr a5, sepc
 738              	# 0 "" 2
 739              	#NO_APP
 740 02a0 2334F4FC 		sd	a5,-56(s0)
 107:src/../h/Riscv.h **** }
 741              		.loc 2 107 5 is_stmt 1
 107:src/../h/Riscv.h **** }
 742              		.loc 2 107 12 is_stmt 0
 743 02a4 033984FC 		ld	s2,-56(s0)
 744              	.LVL71:
 745              	.LBE78:
 746              	.LBE77:
 154:src/Riscv.cpp ****     uint64 sstatus = Riscv::r_sstatus();
GAS LISTING /tmp/ccAgszbc.s 			page 25


 747              		.loc 1 154 5 is_stmt 1
 748              	.LBB79:
 749              	.LBB80:
 173:src/../h/Riscv.h ****     __asm__ volatile ("csrr %[sstatus], sstatus" : [sstatus] "=r"(sstatus));
 750              		.loc 2 173 5
 174:src/../h/Riscv.h ****     return sstatus;
 751              		.loc 2 174 5
 174:src/../h/Riscv.h ****     return sstatus;
 752              		.loc 2 174 76 is_stmt 0
 753              	#APP
 754              	# 174 "src/../h/Riscv.h" 1
 755              		csrr a5, sstatus
 756              	# 0 "" 2
 757              	#NO_APP
 758 02ac 2330F4FC 		sd	a5,-64(s0)
 175:src/../h/Riscv.h **** }
 759              		.loc 2 175 5 is_stmt 1
 175:src/../h/Riscv.h **** }
 760              		.loc 2 175 12 is_stmt 0
 761 02b0 833904FC 		ld	s3,-64(s0)
 762              	.LVL72:
 763              	.LBE80:
 764              	.LBE79:
 155:src/Riscv.cpp **** 
 156:src/Riscv.cpp ****     mc_sip(SIP_SSIE);
 765              		.loc 1 156 5 is_stmt 1
 766              	.LBB81:
 767              	.LBB82:
 146:src/../h/Riscv.h **** }
 768              		.loc 2 146 5
 146:src/../h/Riscv.h **** }
 769              		.loc 2 146 64 is_stmt 0
 770 02b4 93072000 		li	a5,2
 771              	#APP
 772              	# 146 "src/../h/Riscv.h" 1
 773              		csrc sip, a5
 774              	# 0 "" 2
 775              	.LVL73:
 776              	#NO_APP
 777              	.LBE82:
 778              	.LBE81:
 157:src/Riscv.cpp ****     TCB::running->decTimeSlice();
 779              		.loc 1 157 5 is_stmt 1
 780              		.loc 1 157 31 is_stmt 0
 781 02bc 97040000 		la	s1,_ZN3TCB7runningE
 781      83B40400 
 782 02c4 03B70400 		ld	a4,0(s1)
 783              	.LVL74:
 784              	.LBB83:
 785              	.LBB84:
  80:src/../h/TCB.h ****     void decTimeSlice() { timeSlice--; }
 786              		.loc 3 80 27 is_stmt 1
 787 02c8 83378702 		ld	a5,40(a4)
 788              		.loc 3 80 36 is_stmt 0
 789 02cc 9387F7FF 		addi	a5,a5,-1
 790 02d0 2334F702 		sd	a5,40(a4)
 791              	.LVL75:
GAS LISTING /tmp/ccAgszbc.s 			page 26


 792              	.LBE84:
 793              	.LBE83:
 158:src/Riscv.cpp ****     TimerSleep::get();
 794              		.loc 1 158 5 is_stmt 1
 795              		.loc 1 158 20 is_stmt 0
 796 02d4 97000000 		call	_ZN10TimerSleep3getEv@plt
 796      E7800000 
 797              	.LVL76:
 159:src/Riscv.cpp ****     if(TCB::running->getTimeSlice() <= 0){
 798              		.loc 1 159 5 is_stmt 1
 799              		.loc 1 159 34 is_stmt 0
 800 02dc 83B70400 		ld	a5,0(s1)
 801              	.LVL77:
 802              	.LBB85:
 803              	.LBB86:
  77:src/../h/TCB.h ****     void setTimeSlice(uint64 time) { restimeSlice = time; }
 804              		.loc 3 77 35 is_stmt 1
  77:src/../h/TCB.h ****     void setTimeSlice(uint64 time) { restimeSlice = time; }
 805              		.loc 3 77 42 is_stmt 0
 806 02e0 83B78702 		ld	a5,40(a5)
 807              	.LVL78:
 808              	.LBE86:
 809              	.LBE85:
 810              		.loc 1 159 5
 811 02e4 63840702 		beqz	a5,.L36
 812              	.L34:
 160:src/Riscv.cpp ****         TCB::dispatch();
 161:src/Riscv.cpp ****     }
 162:src/Riscv.cpp **** 
 163:src/Riscv.cpp ****     Riscv::w_sstatus(sstatus);
 813              		.loc 1 163 5 is_stmt 1
 814              	.LVL79:
 815              	.LBB87:
 816              	.LBB88:
 180:src/../h/Riscv.h **** }
 817              		.loc 2 180 5
 180:src/../h/Riscv.h **** }
 818              		.loc 2 180 77 is_stmt 0
 819              	#APP
 820              	# 180 "src/../h/Riscv.h" 1
 821              		csrw sstatus, s3
 822              	# 0 "" 2
 823              	.LVL80:
 824              	#NO_APP
 825              	.LBE88:
 826              	.LBE87:
 164:src/Riscv.cpp ****     Riscv::w_sepc(sepc);
 827              		.loc 1 164 5 is_stmt 1
 828              	.LBB89:
 829              	.LBB90:
 112:src/../h/Riscv.h **** }
 830              		.loc 2 112 5
 112:src/../h/Riscv.h **** }
 831              		.loc 2 112 65 is_stmt 0
 832              	#APP
 833              	# 112 "src/../h/Riscv.h" 1
 834              		csrw sepc, s2
GAS LISTING /tmp/ccAgszbc.s 			page 27


 835              	# 0 "" 2
 836              	.LVL81:
 837              	#NO_APP
 838              	.LBE90:
 839              	.LBE89:
 165:src/Riscv.cpp **** }
 840              		.loc 1 165 1
 841 02f0 83308103 		ld	ra,56(sp)
 842              		.cfi_remember_state
 843              		.cfi_restore 1
 844 02f4 03340103 		ld	s0,48(sp)
 845              		.cfi_restore 8
 846              		.cfi_def_cfa 2, 64
 847 02f8 83348102 		ld	s1,40(sp)
 848              		.cfi_restore 9
 849 02fc 03390102 		ld	s2,32(sp)
 850              		.cfi_restore 18
 851              	.LVL82:
 852 0300 83398101 		ld	s3,24(sp)
 853              		.cfi_restore 19
 854              	.LVL83:
 855 0304 13010104 		addi	sp,sp,64
 856              		.cfi_def_cfa_offset 0
 857 0308 67800000 		jr	ra
 858              	.LVL84:
 859              	.L36:
 860              		.cfi_restore_state
 160:src/Riscv.cpp ****     }
 861              		.loc 1 160 9 is_stmt 1
 160:src/Riscv.cpp ****     }
 862              		.loc 1 160 22 is_stmt 0
 863 030c 97000000 		call	_ZN3TCB8dispatchEv@plt
 863      E7800000 
 864              	.LVL85:
 865 0314 6FF05FFD 		j	.L34
 866              		.cfi_endproc
 867              	.LFE36:
 869              		.align	2
 870              		.globl	_ZN5Riscv14consoleHandlerEv
 872              	_ZN5Riscv14consoleHandlerEv:
 873              	.LFB37:
 166:src/Riscv.cpp **** 
 167:src/Riscv.cpp **** void Riscv::consoleHandler() {
 874              		.loc 1 167 30 is_stmt 1
 875              		.cfi_startproc
 876 0318 130101FC 		addi	sp,sp,-64
 877              		.cfi_def_cfa_offset 64
 878 031c 233C1102 		sd	ra,56(sp)
 879 0320 23388102 		sd	s0,48(sp)
 880 0324 23349102 		sd	s1,40(sp)
 881 0328 23302103 		sd	s2,32(sp)
 882 032c 233C3101 		sd	s3,24(sp)
 883              		.cfi_offset 1, -8
 884              		.cfi_offset 8, -16
 885              		.cfi_offset 9, -24
 886              		.cfi_offset 18, -32
 887              		.cfi_offset 19, -40
GAS LISTING /tmp/ccAgszbc.s 			page 28


 888 0330 13040104 		addi	s0,sp,64
 889              		.cfi_def_cfa 8, 0
 168:src/Riscv.cpp ****     uint64 sepc = Riscv::r_sepc();
 890              		.loc 1 168 5
 891              	.LBB91:
 892              	.LBB92:
 105:src/../h/Riscv.h ****     __asm__ volatile ("csrr %[sepc], sepc" : [sepc] "=r"(sepc));
 893              		.loc 2 105 5
 106:src/../h/Riscv.h ****     return sepc;
 894              		.loc 2 106 5
 106:src/../h/Riscv.h ****     return sepc;
 895              		.loc 2 106 64 is_stmt 0
 896              	#APP
 897              	# 106 "src/../h/Riscv.h" 1
 898              		csrr a5, sepc
 899              	# 0 "" 2
 900              	#NO_APP
 901 0338 2334F4FC 		sd	a5,-56(s0)
 107:src/../h/Riscv.h **** }
 902              		.loc 2 107 5 is_stmt 1
 107:src/../h/Riscv.h **** }
 903              		.loc 2 107 12 is_stmt 0
 904 033c 033984FC 		ld	s2,-56(s0)
 905              	.LVL86:
 906              	.LBE92:
 907              	.LBE91:
 169:src/Riscv.cpp ****     uint64 sstatus = Riscv::r_sstatus();
 908              		.loc 1 169 5 is_stmt 1
 909              	.LBB93:
 910              	.LBB94:
 173:src/../h/Riscv.h ****     __asm__ volatile ("csrr %[sstatus], sstatus" : [sstatus] "=r"(sstatus));
 911              		.loc 2 173 5
 174:src/../h/Riscv.h ****     return sstatus;
 912              		.loc 2 174 5
 174:src/../h/Riscv.h ****     return sstatus;
 913              		.loc 2 174 76 is_stmt 0
 914              	#APP
 915              	# 174 "src/../h/Riscv.h" 1
 916              		csrr a5, sstatus
 917              	# 0 "" 2
 918              	#NO_APP
 919 0344 2330F4FC 		sd	a5,-64(s0)
 175:src/../h/Riscv.h **** }
 920              		.loc 2 175 5 is_stmt 1
 175:src/../h/Riscv.h **** }
 921              		.loc 2 175 12 is_stmt 0
 922 0348 833904FC 		ld	s3,-64(s0)
 923              	.LVL87:
 924              	.LBE94:
 925              	.LBE93:
 170:src/Riscv.cpp **** 
 171:src/Riscv.cpp ****     int cause = plic_claim();
 926              		.loc 1 171 5 is_stmt 1
 927              		.loc 1 171 27 is_stmt 0
 928 034c 97000000 		call	plic_claim@plt
 928      E7800000 
 929              	.LVL88:
GAS LISTING /tmp/ccAgszbc.s 			page 29


 930 0354 93040500 		mv	s1,a0
 931              	.LVL89:
 172:src/Riscv.cpp ****     if(cause == 10){
 932              		.loc 1 172 5 is_stmt 1
 933 0358 9307A000 		li	a5,10
 934 035c 630AF502 		beq	a0,a5,.L39
 935              	.LVL90:
 936              	.L38:
 173:src/Riscv.cpp ****         while(((*(char*) CONSOLE_STATUS) & 0x01) && !KConsole::outputBuffer->isFull()){
 174:src/Riscv.cpp ****             KConsole::outputBuffer->put((*(char*) CONSOLE_RX_DATA));
 175:src/Riscv.cpp ****         }
 176:src/Riscv.cpp ****     }
 177:src/Riscv.cpp **** 
 178:src/Riscv.cpp ****     plic_complete(cause);
 937              		.loc 1 178 5
 938              		.loc 1 178 18 is_stmt 0
 939 0360 13850400 		mv	a0,s1
 940 0364 97000000 		call	plic_complete@plt
 940      E7800000 
 941              	.LVL91:
 179:src/Riscv.cpp ****     Riscv::w_sstatus(sstatus);
 942              		.loc 1 179 5 is_stmt 1
 943              	.LBB95:
 944              	.LBB96:
 180:src/../h/Riscv.h **** }
 945              		.loc 2 180 5
 180:src/../h/Riscv.h **** }
 946              		.loc 2 180 77 is_stmt 0
 947              	#APP
 948              	# 180 "src/../h/Riscv.h" 1
 949              		csrw sstatus, s3
 950              	# 0 "" 2
 951              	.LVL92:
 952              	#NO_APP
 953              	.LBE96:
 954              	.LBE95:
 180:src/Riscv.cpp ****     Riscv::w_sepc(sepc);
 955              		.loc 1 180 5 is_stmt 1
 956              	.LBB97:
 957              	.LBB98:
 112:src/../h/Riscv.h **** }
 958              		.loc 2 112 5
 112:src/../h/Riscv.h **** }
 959              		.loc 2 112 65 is_stmt 0
 960              	#APP
 961              	# 112 "src/../h/Riscv.h" 1
 962              		csrw sepc, s2
 963              	# 0 "" 2
 964              	.LVL93:
 965              	#NO_APP
 966              	.LBE98:
 967              	.LBE97:
 181:src/Riscv.cpp **** }
 968              		.loc 1 181 1
 969 0374 83308103 		ld	ra,56(sp)
 970              		.cfi_remember_state
 971              		.cfi_restore 1
GAS LISTING /tmp/ccAgszbc.s 			page 30


 972 0378 03340103 		ld	s0,48(sp)
 973              		.cfi_restore 8
 974              		.cfi_def_cfa 2, 64
 975 037c 83348102 		ld	s1,40(sp)
 976              		.cfi_restore 9
 977 0380 03390102 		ld	s2,32(sp)
 978              		.cfi_restore 18
 979              	.LVL94:
 980 0384 83398101 		ld	s3,24(sp)
 981              		.cfi_restore 19
 982              	.LVL95:
 983 0388 13010104 		addi	sp,sp,64
 984              		.cfi_def_cfa_offset 0
 985 038c 67800000 		jr	ra
 986              	.LVL96:
 987              	.L39:
 988              		.cfi_restore_state
 173:src/Riscv.cpp ****             KConsole::outputBuffer->put((*(char*) CONSOLE_RX_DATA));
 989              		.loc 1 173 9 is_stmt 1
 173:src/Riscv.cpp ****             KConsole::outputBuffer->put((*(char*) CONSOLE_RX_DATA));
 990              		.loc 1 173 50
 173:src/Riscv.cpp ****             KConsole::outputBuffer->put((*(char*) CONSOLE_RX_DATA));
 991              		.loc 1 173 17 is_stmt 0
 992 0390 97070000 		la	a5,CONSOLE_STATUS
 992      83B70700 
 993 0398 83B70700 		ld	a5,0(a5)
 994 039c 83C70700 		lbu	a5,0(a5)
 173:src/Riscv.cpp ****             KConsole::outputBuffer->put((*(char*) CONSOLE_RX_DATA));
 995              		.loc 1 173 50
 996 03a0 93F71700 		andi	a5,a5,1
 997 03a4 E38E07FA 		beqz	a5,.L38
 173:src/Riscv.cpp ****             KConsole::outputBuffer->put((*(char*) CONSOLE_RX_DATA));
 998              		.loc 1 173 84 discriminator 1
 999 03a8 97070000 		la	a5,_ZN8KConsole12outputBufferE
 999      83B70700 
 1000 03b0 03B50700 		ld	a0,0(a5)
 1001 03b4 97000000 		call	_ZN7KBuffer6isFullEv@plt
 1001      E7800000 
 1002              	.LVL97:
 173:src/Riscv.cpp ****             KConsole::outputBuffer->put((*(char*) CONSOLE_RX_DATA));
 1003              		.loc 1 173 50 discriminator 1
 1004 03bc E31205FA 		bnez	a0,.L38
 174:src/Riscv.cpp ****         }
 1005              		.loc 1 174 13 is_stmt 1
 174:src/Riscv.cpp ****         }
 1006              		.loc 1 174 42 is_stmt 0
 1007 03c0 97070000 		la	a5,CONSOLE_RX_DATA
 1007      83B70700 
 1008 03c8 83B70700 		ld	a5,0(a5)
 174:src/Riscv.cpp ****         }
 1009              		.loc 1 174 40
 1010 03cc 83C50700 		lbu	a1,0(a5)
 1011 03d0 97070000 		la	a5,_ZN8KConsole12outputBufferE
 1011      83B70700 
 1012 03d8 03B50700 		ld	a0,0(a5)
 1013 03dc 97000000 		call	_ZN7KBuffer3putEi@plt
 1013      E7800000 
GAS LISTING /tmp/ccAgszbc.s 			page 31


 1014              	.LVL98:
 173:src/Riscv.cpp ****             KConsole::outputBuffer->put((*(char*) CONSOLE_RX_DATA));
 1015              		.loc 1 173 9
 1016 03e4 6FF0DFFA 		j	.L39
 1017              		.cfi_endproc
 1018              	.LFE37:
 1020              		.align	2
 1021              		.globl	_ZN5Riscv10popSppSpieEv
 1023              	_ZN5Riscv10popSppSpieEv:
 1024              	.LFB38:
 182:src/Riscv.cpp **** 
 183:src/Riscv.cpp **** void Riscv::popSppSpie()
 184:src/Riscv.cpp **** {
 1025              		.loc 1 184 1 is_stmt 1
 1026              		.cfi_startproc
 1027 03e8 130101FF 		addi	sp,sp,-16
 1028              		.cfi_def_cfa_offset 16
 1029 03ec 23348100 		sd	s0,8(sp)
 1030              		.cfi_offset 8, -8
 1031 03f0 13040101 		addi	s0,sp,16
 1032              		.cfi_def_cfa 8, 0
 185:src/Riscv.cpp ****     __asm__ volatile("csrw sepc, ra");
 1033              		.loc 1 185 5
 1034              		.loc 1 185 38 is_stmt 0
 1035              	#APP
 1036              	# 185 "src/Riscv.cpp" 1
 186              	    __asm__ volatile("li t0, 256");
 1037              		csrw sepc, ra
 1038              	# 0 "" 2
 1039              		.loc 1 186 5 is_stmt 1
 1040              		.loc 1 186 35 is_stmt 0
 1041              	# 186 "src/Riscv.cpp" 1
 187              	    __asm__ volatile("csrc sstatus, t0");
 1042              		li t0, 256
 1043              	# 0 "" 2
 1044              		.loc 1 187 5 is_stmt 1
 1045              		.loc 1 187 41 is_stmt 0
 1046              	# 187 "src/Riscv.cpp" 1
 188              	
 189:src/Riscv.cpp ****     __asm__ volatile("ld s0, 8(sp)");
 1047              		csrc sstatus, t0
 1048              	# 0 "" 2
 1049              		.loc 1 189 5 is_stmt 1
 1050              		.loc 1 189 37 is_stmt 0
 1051              	# 189 "src/Riscv.cpp" 1
 190              	    __asm__ volatile("addi sp, sp, 16");
 1052              		ld s0, 8(sp)
 1053              	# 0 "" 2
 1054              		.loc 1 190 5 is_stmt 1
 1055              		.loc 1 190 40 is_stmt 0
 1056              	# 190 "src/Riscv.cpp" 1
 191              	
 192:src/Riscv.cpp ****      __asm__ volatile("sret");
 1057              		addi sp, sp, 16
 1058              	# 0 "" 2
 1059              		.loc 1 192 6 is_stmt 1
 1060              		.loc 1 192 30 is_stmt 0
GAS LISTING /tmp/ccAgszbc.s 			page 32


 1061              	# 192 "src/Riscv.cpp" 1
 193              	}
 1062              		sret
 1063              	# 0 "" 2
 1064              		.loc 1 193 1
 1065              	#NO_APP
 1066 040c 03348100 		ld	s0,8(sp)
 1067              		.cfi_restore 8
 1068              		.cfi_def_cfa 2, 16
 1069 0410 13010101 		addi	sp,sp,16
 1070              		.cfi_def_cfa_offset 0
 1071 0414 67800000 		jr	ra
 1072              		.cfi_endproc
 1073              	.LFE38:
 1075              	.Letext0:
 1076              		.file 5 "src/../h/../lib/hw.h"
 1077              		.file 6 "src/../h/MemoryAllocator.h"
 1078              		.file 7 "src/../h/Scheduler.h"
 1079              		.file 8 "src/../h/TimerSleep.h"
 1080              		.file 9 "src/../h/KBuffer.h"
 1081              		.file 10 "src/../h/KConsole.h"
 1082              		.file 11 "src/../h/syscall_c.hpp"
GAS LISTING /tmp/ccAgszbc.s 			page 33

