GAS LISTING /tmp/cczg76ml.s 			page 1


   1              		.file	"Scheduler.cpp"
   2              		.option pic
   3              		.option norelax
   4              		.text
   5              	.Ltext0:
   6              		.align	2
   7              		.globl	_ZN9Scheduler4NodenwEm
   9              	_ZN9Scheduler4NodenwEm:
  10              	.LFB2:
  11              		.file 1 "src/Scheduler.cpp"
   1:src/Scheduler.cpp **** //
   2:src/Scheduler.cpp **** // Created by os on 7/18/23.
   3:src/Scheduler.cpp **** //
   4:src/Scheduler.cpp **** #include "../h/Scheduler.h"
   5:src/Scheduler.cpp **** 
   6:src/Scheduler.cpp **** Scheduler::Node* Scheduler::head = nullptr;
   7:src/Scheduler.cpp **** Scheduler::Node* Scheduler::tail = nullptr;
   8:src/Scheduler.cpp **** 
   9:src/Scheduler.cpp **** void Scheduler::put(TCB *data) {
  10:src/Scheduler.cpp ****     Node* cur = new Node();
  11:src/Scheduler.cpp ****     cur->data = data;
  12:src/Scheduler.cpp ****     cur->next = nullptr;
  13:src/Scheduler.cpp **** 
  14:src/Scheduler.cpp ****     if(!tail)
  15:src/Scheduler.cpp ****         head = tail = cur;
  16:src/Scheduler.cpp ****     else{
  17:src/Scheduler.cpp ****         tail->next = cur;
  18:src/Scheduler.cpp ****         tail = cur;
  19:src/Scheduler.cpp ****         tail->next = nullptr;
  20:src/Scheduler.cpp ****     }
  21:src/Scheduler.cpp **** }
  22:src/Scheduler.cpp **** 
  23:src/Scheduler.cpp **** TCB* Scheduler::get() {
  24:src/Scheduler.cpp ****     if(!head) return nullptr;
  25:src/Scheduler.cpp ****     TCB* data = head->data;
  26:src/Scheduler.cpp ****     Node* prev = head;
  27:src/Scheduler.cpp **** 
  28:src/Scheduler.cpp ****     head= head->next;
  29:src/Scheduler.cpp ****     delete prev;
  30:src/Scheduler.cpp **** 
  31:src/Scheduler.cpp ****     if(head == nullptr)
  32:src/Scheduler.cpp ****         tail = nullptr;
  33:src/Scheduler.cpp ****     return data;
  34:src/Scheduler.cpp **** }
  35:src/Scheduler.cpp **** 
  36:src/Scheduler.cpp **** void *Scheduler::Node::operator new(size_t size) {
  12              		.loc 1 36 50
  13              		.cfi_startproc
  14              	.LVL0:
  15 0000 130101FF 		addi	sp,sp,-16
  16              		.cfi_def_cfa_offset 16
  17 0004 23341100 		sd	ra,8(sp)
  18 0008 23308100 		sd	s0,0(sp)
  19              		.cfi_offset 1, -8
  20              		.cfi_offset 8, -16
  21 000c 13040101 		addi	s0,sp,16
  22              		.cfi_def_cfa 8, 0
GAS LISTING /tmp/cczg76ml.s 			page 2


  37:src/Scheduler.cpp ****     return MemoryAllocator::mem_alloc(size);
  23              		.loc 1 37 5
  24              		.loc 1 37 38 is_stmt 0
  25 0010 97000000 		call	_ZN15MemoryAllocator9mem_allocEm@plt
  25      E7800000 
  26              	.LVL1:
  38:src/Scheduler.cpp **** }
  27              		.loc 1 38 1
  28 0018 83308100 		ld	ra,8(sp)
  29              		.cfi_restore 1
  30 001c 03340100 		ld	s0,0(sp)
  31              		.cfi_restore 8
  32              		.cfi_def_cfa 2, 16
  33 0020 13010101 		addi	sp,sp,16
  34              		.cfi_def_cfa_offset 0
  35 0024 67800000 		jr	ra
  36              		.cfi_endproc
  37              	.LFE2:
  39              		.align	2
  40              		.globl	_ZN9Scheduler3putEP3TCB
  42              	_ZN9Scheduler3putEP3TCB:
  43              	.LFB0:
   9:src/Scheduler.cpp ****     Node* cur = new Node();
  44              		.loc 1 9 32 is_stmt 1
  45              		.cfi_startproc
  46              	.LVL2:
  47 0028 130101FE 		addi	sp,sp,-32
  48              		.cfi_def_cfa_offset 32
  49 002c 233C1100 		sd	ra,24(sp)
  50 0030 23388100 		sd	s0,16(sp)
  51 0034 23349100 		sd	s1,8(sp)
  52              		.cfi_offset 1, -8
  53              		.cfi_offset 8, -16
  54              		.cfi_offset 9, -24
  55 0038 13040102 		addi	s0,sp,32
  56              		.cfi_def_cfa 8, 0
  57 003c 93040500 		mv	s1,a0
  10:src/Scheduler.cpp ****     cur->data = data;
  58              		.loc 1 10 5
  10:src/Scheduler.cpp ****     cur->data = data;
  59              		.loc 1 10 26 is_stmt 0
  60 0040 13050001 		li	a0,16
  61              	.LVL3:
  62 0044 97000000 		call	_ZN9Scheduler4NodenwEm
  62      E7800000 
  63              	.LVL4:
  64 004c 23340500 		sd	zero,8(a0)
  65              	.LVL5:
  11:src/Scheduler.cpp ****     cur->next = nullptr;
  66              		.loc 1 11 5 is_stmt 1
  11:src/Scheduler.cpp ****     cur->next = nullptr;
  67              		.loc 1 11 15 is_stmt 0
  68 0050 23309500 		sd	s1,0(a0)
  12:src/Scheduler.cpp **** 
  69              		.loc 1 12 5 is_stmt 1
  14:src/Scheduler.cpp ****         head = tail = cur;
  70              		.loc 1 14 5
GAS LISTING /tmp/cczg76ml.s 			page 3


  14:src/Scheduler.cpp ****         head = tail = cur;
  71              		.loc 1 14 8 is_stmt 0
  72 0054 97070000 		ld	a5,.LANCHOR0
  72      83B70700 
  14:src/Scheduler.cpp ****         head = tail = cur;
  73              		.loc 1 14 5
  74 005c 63840702 		beqz	a5,.L7
  17:src/Scheduler.cpp ****         tail = cur;
  75              		.loc 1 17 9 is_stmt 1
  17:src/Scheduler.cpp ****         tail = cur;
  76              		.loc 1 17 20 is_stmt 0
  77 0060 23B4A700 		sd	a0,8(a5)
  18:src/Scheduler.cpp ****         tail->next = nullptr;
  78              		.loc 1 18 9 is_stmt 1
  18:src/Scheduler.cpp ****         tail->next = nullptr;
  79              		.loc 1 18 14 is_stmt 0
  80 0064 97070000 		sd	a0,.LANCHOR0,a5
  80      23B0A700 
  19:src/Scheduler.cpp ****     }
  81              		.loc 1 19 9 is_stmt 1
  19:src/Scheduler.cpp ****     }
  82              		.loc 1 19 20 is_stmt 0
  83 006c 23340500 		sd	zero,8(a0)
  84              	.L3:
  21:src/Scheduler.cpp **** 
  85              		.loc 1 21 1
  86 0070 83308101 		ld	ra,24(sp)
  87              		.cfi_remember_state
  88              		.cfi_restore 1
  89 0074 03340101 		ld	s0,16(sp)
  90              		.cfi_restore 8
  91              		.cfi_def_cfa 2, 32
  92 0078 83348100 		ld	s1,8(sp)
  93              		.cfi_restore 9
  94              	.LVL6:
  95 007c 13010102 		addi	sp,sp,32
  96              		.cfi_def_cfa_offset 0
  97 0080 67800000 		jr	ra
  98              	.LVL7:
  99              	.L7:
 100              		.cfi_restore_state
  15:src/Scheduler.cpp ****     else{
 101              		.loc 1 15 9 is_stmt 1
  15:src/Scheduler.cpp ****     else{
 102              		.loc 1 15 21 is_stmt 0
 103 0084 97070000 		lla	a5,.LANCHOR0
 103      93870700 
 104 008c 23B0A700 		sd	a0,0(a5)
  15:src/Scheduler.cpp ****     else{
 105              		.loc 1 15 14
 106 0090 23B4A700 		sd	a0,8(a5)
 107 0094 6FF0DFFD 		j	.L3
 108              		.cfi_endproc
 109              	.LFE0:
 111              		.align	2
 112              		.globl	_ZN9Scheduler4NodedlEPv
 114              	_ZN9Scheduler4NodedlEPv:
GAS LISTING /tmp/cczg76ml.s 			page 4


 115              	.LFB3:
  39:src/Scheduler.cpp **** 
  40:src/Scheduler.cpp **** void Scheduler::Node::operator delete(void *ptr) {
 116              		.loc 1 40 50 is_stmt 1
 117              		.cfi_startproc
 118              	.LVL8:
 119 0098 130101FF 		addi	sp,sp,-16
 120              		.cfi_def_cfa_offset 16
 121 009c 23341100 		sd	ra,8(sp)
 122 00a0 23308100 		sd	s0,0(sp)
 123              		.cfi_offset 1, -8
 124              		.cfi_offset 8, -16
 125 00a4 13040101 		addi	s0,sp,16
 126              		.cfi_def_cfa 8, 0
  41:src/Scheduler.cpp ****     MemoryAllocator::mem_free(ptr);
 127              		.loc 1 41 5
 128              		.loc 1 41 30 is_stmt 0
 129 00a8 97000000 		call	_ZN15MemoryAllocator8mem_freeEPv@plt
 129      E7800000 
 130              	.LVL9:
  42:src/Scheduler.cpp **** }
 131              		.loc 1 42 1
 132 00b0 83308100 		ld	ra,8(sp)
 133              		.cfi_restore 1
 134 00b4 03340100 		ld	s0,0(sp)
 135              		.cfi_restore 8
 136              		.cfi_def_cfa 2, 16
 137 00b8 13010101 		addi	sp,sp,16
 138              		.cfi_def_cfa_offset 0
 139 00bc 67800000 		jr	ra
 140              		.cfi_endproc
 141              	.LFE3:
 143              		.align	2
 144              		.globl	_ZN9Scheduler3getEv
 146              	_ZN9Scheduler3getEv:
 147              	.LFB1:
  23:src/Scheduler.cpp ****     if(!head) return nullptr;
 148              		.loc 1 23 23 is_stmt 1
 149              		.cfi_startproc
 150 00c0 130101FE 		addi	sp,sp,-32
 151              		.cfi_def_cfa_offset 32
 152 00c4 233C1100 		sd	ra,24(sp)
 153 00c8 23388100 		sd	s0,16(sp)
 154 00cc 23349100 		sd	s1,8(sp)
 155 00d0 23302101 		sd	s2,0(sp)
 156              		.cfi_offset 1, -8
 157              		.cfi_offset 8, -16
 158              		.cfi_offset 9, -24
 159              		.cfi_offset 18, -32
 160 00d4 13040102 		addi	s0,sp,32
 161              		.cfi_def_cfa 8, 0
  24:src/Scheduler.cpp ****     TCB* data = head->data;
 162              		.loc 1 24 5
  24:src/Scheduler.cpp ****     TCB* data = head->data;
 163              		.loc 1 24 8 is_stmt 0
 164 00d8 17050000 		ld	a0,.LANCHOR0+8
 164      03350500 
GAS LISTING /tmp/cczg76ml.s 			page 5


  24:src/Scheduler.cpp ****     TCB* data = head->data;
 165              		.loc 1 24 5
 166 00e0 63080504 		beqz	a0,.L12
  25:src/Scheduler.cpp ****     Node* prev = head;
 167              		.loc 1 25 5 is_stmt 1
  25:src/Scheduler.cpp ****     Node* prev = head;
 168              		.loc 1 25 10 is_stmt 0
 169 00e4 03390500 		ld	s2,0(a0)
 170              	.LVL10:
  26:src/Scheduler.cpp **** 
 171              		.loc 1 26 5 is_stmt 1
  28:src/Scheduler.cpp ****     delete prev;
 172              		.loc 1 28 5
  28:src/Scheduler.cpp ****     delete prev;
 173              		.loc 1 28 17 is_stmt 0
 174 00e8 83378500 		ld	a5,8(a0)
  28:src/Scheduler.cpp ****     delete prev;
 175              		.loc 1 28 9
 176 00ec 97040000 		lla	s1,.LANCHOR0
 176      93840400 
 177 00f4 23B4F400 		sd	a5,8(s1)
  29:src/Scheduler.cpp **** 
 178              		.loc 1 29 5 is_stmt 1
  29:src/Scheduler.cpp **** 
 179              		.loc 1 29 12 is_stmt 0
 180 00f8 97000000 		call	_ZN9Scheduler4NodedlEPv
 180      E7800000 
 181              	.LVL11:
  31:src/Scheduler.cpp ****         tail = nullptr;
 182              		.loc 1 31 5 is_stmt 1
  31:src/Scheduler.cpp ****         tail = nullptr;
 183              		.loc 1 31 13 is_stmt 0
 184 0100 83B78400 		ld	a5,8(s1)
  31:src/Scheduler.cpp ****         tail = nullptr;
 185              		.loc 1 31 5
 186 0104 63800702 		beqz	a5,.L14
 187              	.LVL12:
 188              	.L10:
  34:src/Scheduler.cpp **** 
 189              		.loc 1 34 1
 190 0108 13050900 		mv	a0,s2
 191 010c 83308101 		ld	ra,24(sp)
 192              		.cfi_remember_state
 193              		.cfi_restore 1
 194 0110 03340101 		ld	s0,16(sp)
 195              		.cfi_restore 8
 196              		.cfi_def_cfa 2, 32
 197 0114 83348100 		ld	s1,8(sp)
 198              		.cfi_restore 9
 199 0118 03390100 		ld	s2,0(sp)
 200              		.cfi_restore 18
 201 011c 13010102 		addi	sp,sp,32
 202              		.cfi_def_cfa_offset 0
 203 0120 67800000 		jr	ra
 204              	.LVL13:
 205              	.L14:
 206              		.cfi_restore_state
GAS LISTING /tmp/cczg76ml.s 			page 6


  32:src/Scheduler.cpp ****     return data;
 207              		.loc 1 32 9 is_stmt 1
  32:src/Scheduler.cpp ****     return data;
 208              		.loc 1 32 14 is_stmt 0
 209 0124 97070000 		sd	zero,.LANCHOR0,a5
 209      23B00700 
 210 012c 6FF0DFFD 		j	.L10
 211              	.LVL14:
 212              	.L12:
  24:src/Scheduler.cpp ****     TCB* data = head->data;
 213              		.loc 1 24 22
 214 0130 13090500 		mv	s2,a0
 215 0134 6FF05FFD 		j	.L10
 216              		.cfi_endproc
 217              	.LFE1:
 219              		.globl	_ZN9Scheduler4tailE
 220              		.globl	_ZN9Scheduler4headE
 221              		.bss
 222              		.align	3
 223              		.set	.LANCHOR0,. + 0
 226              	_ZN9Scheduler4tailE:
 227 0000 00000000 		.zero	8
 227      00000000 
 230              	_ZN9Scheduler4headE:
 231 0008 00000000 		.zero	8
 231      00000000 
 232              		.text
 233              	.Letext0:
 234              		.file 2 "src/../h/../lib/hw.h"
 235              		.file 3 "src/../h/MemoryAllocator.h"
 236              		.file 4 "src/../h/Scheduler.h"
GAS LISTING /tmp/cczg76ml.s 			page 7

