GAS LISTING /tmp/ccmNshZh.s 			page 1


   1              		.file	"Sem.cpp"
   2              		.option pic
   3              		.option norelax
   4              		.text
   5              	.Ltext0:
   6              		.align	2
   7              		.globl	_ZN3SemnwEm
   9              	_ZN3SemnwEm:
  10              	.LFB44:
  11              		.file 1 "src/Sem.cpp"
   1:src/Sem.cpp   **** //
   2:src/Sem.cpp   **** // Created by os on 7/18/23.
   3:src/Sem.cpp   **** //
   4:src/Sem.cpp   **** 
   5:src/Sem.cpp   **** #include "../h/Sem.h"
   6:src/Sem.cpp   **** 
   7:src/Sem.cpp   **** Sem::~Sem () {
   8:src/Sem.cpp   ****     TCB* t;
   9:src/Sem.cpp   ****     while((t = get()) != nullptr){
  10:src/Sem.cpp   ****         t->setState(TCB::STATE::READY);
  11:src/Sem.cpp   ****         t->retFromClosedSem = true;
  12:src/Sem.cpp   ****         Scheduler::put(t);
  13:src/Sem.cpp   ****     }
  14:src/Sem.cpp   **** }
  15:src/Sem.cpp   **** 
  16:src/Sem.cpp   **** void Sem::wait () {
  17:src/Sem.cpp   ****     if (--val<0) {
  18:src/Sem.cpp   ****         block();
  19:src/Sem.cpp   ****     }
  20:src/Sem.cpp   **** }
  21:src/Sem.cpp   **** 
  22:src/Sem.cpp   **** void Sem::signal () {
  23:src/Sem.cpp   ****     if (val++<0)
  24:src/Sem.cpp   ****         deblock();
  25:src/Sem.cpp   **** }
  26:src/Sem.cpp   **** 
  27:src/Sem.cpp   **** void Sem::block () {
  28:src/Sem.cpp   ****     put(TCB::running);
  29:src/Sem.cpp   ****     TCB::running->setState(TCB::STATE::BLOCKED);
  30:src/Sem.cpp   ****     TCB::dispatch();
  31:src/Sem.cpp   **** }
  32:src/Sem.cpp   **** 
  33:src/Sem.cpp   **** void Sem::deblock () {
  34:src/Sem.cpp   ****     TCB* t = get();
  35:src/Sem.cpp   ****     t->setState(TCB::STATE::READY);
  36:src/Sem.cpp   ****     Scheduler::put(t);
  37:src/Sem.cpp   **** }
  38:src/Sem.cpp   **** 
  39:src/Sem.cpp   **** void Sem::put(TCB *data) {
  40:src/Sem.cpp   ****     Node* cur = new Node();
  41:src/Sem.cpp   ****     cur->data = data;
  42:src/Sem.cpp   ****     cur->next = nullptr;
  43:src/Sem.cpp   **** 
  44:src/Sem.cpp   ****     if(!tail)
  45:src/Sem.cpp   ****         head = tail = cur;
  46:src/Sem.cpp   ****     else{
  47:src/Sem.cpp   ****         tail->next = cur;
GAS LISTING /tmp/ccmNshZh.s 			page 2


  48:src/Sem.cpp   ****         tail = cur;
  49:src/Sem.cpp   ****         tail->next = nullptr;
  50:src/Sem.cpp   ****     }
  51:src/Sem.cpp   **** }
  52:src/Sem.cpp   **** 
  53:src/Sem.cpp   **** TCB *Sem::get() {
  54:src/Sem.cpp   ****     if(!head) return nullptr;
  55:src/Sem.cpp   ****     TCB* data = head->data;
  56:src/Sem.cpp   ****     Node* prev = head;
  57:src/Sem.cpp   **** 
  58:src/Sem.cpp   ****     head = head->next;
  59:src/Sem.cpp   ****     delete prev;
  60:src/Sem.cpp   **** 
  61:src/Sem.cpp   ****     if(head == nullptr)
  62:src/Sem.cpp   ****         tail = nullptr;
  63:src/Sem.cpp   ****     return data;
  64:src/Sem.cpp   **** }
  65:src/Sem.cpp   **** 
  66:src/Sem.cpp   **** void *Sem::operator new(size_t size) {
  12              		.loc 1 66 38
  13              		.cfi_startproc
  14              	.LVL0:
  15 0000 130101FF 		addi	sp,sp,-16
  16              		.cfi_def_cfa_offset 16
  17 0004 23341100 		sd	ra,8(sp)
  18 0008 23308100 		sd	s0,0(sp)
  19              		.cfi_offset 1, -8
  20              		.cfi_offset 8, -16
  21 000c 13040101 		addi	s0,sp,16
  22              		.cfi_def_cfa 8, 0
  67:src/Sem.cpp   ****     return MemoryAllocator::mem_alloc(size);
  23              		.loc 1 67 5
  24              		.loc 1 67 38 is_stmt 0
  25 0010 97000000 		call	_ZN15MemoryAllocator9mem_allocEm@plt
  25      E7800000 
  26              	.LVL1:
  68:src/Sem.cpp   **** }
  27              		.loc 1 68 1
  28 0018 83308100 		ld	ra,8(sp)
  29              		.cfi_restore 1
  30 001c 03340100 		ld	s0,0(sp)
  31              		.cfi_restore 8
  32              		.cfi_def_cfa 2, 16
  33 0020 13010101 		addi	sp,sp,16
  34              		.cfi_def_cfa_offset 0
  35 0024 67800000 		jr	ra
  36              		.cfi_endproc
  37              	.LFE44:
  39              		.align	2
  40              		.globl	_ZN3SemdlEPv
  42              	_ZN3SemdlEPv:
  43              	.LFB45:
  69:src/Sem.cpp   **** 
  70:src/Sem.cpp   **** void Sem::operator delete(void *ptr) {
  44              		.loc 1 70 38 is_stmt 1
  45              		.cfi_startproc
  46              	.LVL2:
GAS LISTING /tmp/ccmNshZh.s 			page 3


  47 0028 130101FF 		addi	sp,sp,-16
  48              		.cfi_def_cfa_offset 16
  49 002c 23341100 		sd	ra,8(sp)
  50 0030 23308100 		sd	s0,0(sp)
  51              		.cfi_offset 1, -8
  52              		.cfi_offset 8, -16
  53 0034 13040101 		addi	s0,sp,16
  54              		.cfi_def_cfa 8, 0
  71:src/Sem.cpp   ****     MemoryAllocator::mem_free(ptr);
  55              		.loc 1 71 5
  56              		.loc 1 71 30 is_stmt 0
  57 0038 97000000 		call	_ZN15MemoryAllocator8mem_freeEPv@plt
  57      E7800000 
  58              	.LVL3:
  72:src/Sem.cpp   **** }
  59              		.loc 1 72 1
  60 0040 83308100 		ld	ra,8(sp)
  61              		.cfi_restore 1
  62 0044 03340100 		ld	s0,0(sp)
  63              		.cfi_restore 8
  64              		.cfi_def_cfa 2, 16
  65 0048 13010101 		addi	sp,sp,16
  66              		.cfi_def_cfa_offset 0
  67 004c 67800000 		jr	ra
  68              		.cfi_endproc
  69              	.LFE45:
  71              		.align	2
  72              		.globl	_ZN3Sem4NodenwEm
  74              	_ZN3Sem4NodenwEm:
  75              	.LFB46:
  73:src/Sem.cpp   **** 
  74:src/Sem.cpp   **** void *Sem::Node::operator new(size_t size) {
  76              		.loc 1 74 44 is_stmt 1
  77              		.cfi_startproc
  78              	.LVL4:
  79 0050 130101FF 		addi	sp,sp,-16
  80              		.cfi_def_cfa_offset 16
  81 0054 23341100 		sd	ra,8(sp)
  82 0058 23308100 		sd	s0,0(sp)
  83              		.cfi_offset 1, -8
  84              		.cfi_offset 8, -16
  85 005c 13040101 		addi	s0,sp,16
  86              		.cfi_def_cfa 8, 0
  75:src/Sem.cpp   ****     return MemoryAllocator::mem_alloc(size);
  87              		.loc 1 75 5
  88              		.loc 1 75 38 is_stmt 0
  89 0060 97000000 		call	_ZN15MemoryAllocator9mem_allocEm@plt
  89      E7800000 
  90              	.LVL5:
  76:src/Sem.cpp   **** }
  91              		.loc 1 76 1
  92 0068 83308100 		ld	ra,8(sp)
  93              		.cfi_restore 1
  94 006c 03340100 		ld	s0,0(sp)
  95              		.cfi_restore 8
  96              		.cfi_def_cfa 2, 16
  97 0070 13010101 		addi	sp,sp,16
GAS LISTING /tmp/ccmNshZh.s 			page 4


  98              		.cfi_def_cfa_offset 0
  99 0074 67800000 		jr	ra
 100              		.cfi_endproc
 101              	.LFE46:
 103              		.align	2
 104              		.globl	_ZN3Sem3putEP3TCB
 106              	_ZN3Sem3putEP3TCB:
 107              	.LFB42:
  39:src/Sem.cpp   ****     Node* cur = new Node();
 108              		.loc 1 39 26 is_stmt 1
 109              		.cfi_startproc
 110              	.LVL6:
 111 0078 130101FE 		addi	sp,sp,-32
 112              		.cfi_def_cfa_offset 32
 113 007c 233C1100 		sd	ra,24(sp)
 114 0080 23388100 		sd	s0,16(sp)
 115 0084 23349100 		sd	s1,8(sp)
 116 0088 23302101 		sd	s2,0(sp)
 117              		.cfi_offset 1, -8
 118              		.cfi_offset 8, -16
 119              		.cfi_offset 9, -24
 120              		.cfi_offset 18, -32
 121 008c 13040102 		addi	s0,sp,32
 122              		.cfi_def_cfa 8, 0
 123 0090 93040500 		mv	s1,a0
 124 0094 13890500 		mv	s2,a1
  40:src/Sem.cpp   ****     cur->data = data;
 125              		.loc 1 40 5
  40:src/Sem.cpp   ****     cur->data = data;
 126              		.loc 1 40 26 is_stmt 0
 127 0098 13050001 		li	a0,16
 128              	.LVL7:
 129 009c 97000000 		call	_ZN3Sem4NodenwEm
 129      E7800000 
 130              	.LVL8:
 131              	.LBB13:
 132              	.LBB14:
 133              		.file 2 "src/../h/Sem.h"
   1:src/../h/Sem.h **** //
   2:src/../h/Sem.h **** // Created by os on 7/18/23.
   3:src/../h/Sem.h **** //
   4:src/../h/Sem.h **** 
   5:src/../h/Sem.h **** #ifndef PROJECT_BASE_SEM_H
   6:src/../h/Sem.h **** #define PROJECT_BASE_SEM_H
   7:src/../h/Sem.h **** 
   8:src/../h/Sem.h **** #include "TCB.h"
   9:src/../h/Sem.h **** 
  10:src/../h/Sem.h **** class Sem {
  11:src/../h/Sem.h **** private:
  12:src/../h/Sem.h ****     Sem (int initValue=1) : val(initValue) {
  13:src/../h/Sem.h ****         head = tail = 0;
  14:src/../h/Sem.h ****     }
  15:src/../h/Sem.h **** 
  16:src/../h/Sem.h ****     ~Sem();
  17:src/../h/Sem.h ****     void wait ();
  18:src/../h/Sem.h ****     void signal ();
  19:src/../h/Sem.h ****     void block ();
GAS LISTING /tmp/ccmNshZh.s 			page 5


  20:src/../h/Sem.h ****     void deblock ();
  21:src/../h/Sem.h **** 
  22:src/../h/Sem.h ****     void put(TCB* data);
  23:src/../h/Sem.h ****     TCB* get();
  24:src/../h/Sem.h **** 
  25:src/../h/Sem.h ****     static Sem* createSem(int value){
  26:src/../h/Sem.h ****         return new Sem(value);
  27:src/../h/Sem.h ****     }
  28:src/../h/Sem.h **** 
  29:src/../h/Sem.h ****     void *operator new(size_t size);
  30:src/../h/Sem.h ****     void operator delete(void *ptr);
  31:src/../h/Sem.h **** 
  32:src/../h/Sem.h ****     struct Node{
  33:src/../h/Sem.h ****         TCB* data;
  34:src/../h/Sem.h ****         Node* next;
  35:src/../h/Sem.h **** 
  36:src/../h/Sem.h ****         Node(){
  37:src/../h/Sem.h ****             data = nullptr;
 134              		.loc 2 37 13 is_stmt 1
  38:src/../h/Sem.h ****             next = nullptr;
 135              		.loc 2 38 13
 136              		.loc 2 38 18 is_stmt 0
 137 00a4 23340500 		sd	zero,8(a0)
 138              	.LVL9:
 139              	.LBE14:
 140              	.LBE13:
  41:src/Sem.cpp   ****     cur->next = nullptr;
 141              		.loc 1 41 5 is_stmt 1
  41:src/Sem.cpp   ****     cur->next = nullptr;
 142              		.loc 1 41 15 is_stmt 0
 143 00a8 23302501 		sd	s2,0(a0)
  42:src/Sem.cpp   **** 
 144              		.loc 1 42 5 is_stmt 1
  44:src/Sem.cpp   ****         head = tail = cur;
 145              		.loc 1 44 5
  44:src/Sem.cpp   ****         head = tail = cur;
 146              		.loc 1 44 9 is_stmt 0
 147 00ac 83B78400 		ld	a5,8(s1)
  44:src/Sem.cpp   ****         head = tail = cur;
 148              		.loc 1 44 5
 149 00b0 63840702 		beqz	a5,.L11
  47:src/Sem.cpp   ****         tail = cur;
 150              		.loc 1 47 9 is_stmt 1
  47:src/Sem.cpp   ****         tail = cur;
 151              		.loc 1 47 20 is_stmt 0
 152 00b4 23B4A700 		sd	a0,8(a5)
  48:src/Sem.cpp   ****         tail->next = nullptr;
 153              		.loc 1 48 9 is_stmt 1
  48:src/Sem.cpp   ****         tail->next = nullptr;
 154              		.loc 1 48 14 is_stmt 0
 155 00b8 23B4A400 		sd	a0,8(s1)
  49:src/Sem.cpp   ****     }
 156              		.loc 1 49 9 is_stmt 1
  49:src/Sem.cpp   ****     }
 157              		.loc 1 49 20 is_stmt 0
 158 00bc 23340500 		sd	zero,8(a0)
 159              	.L7:
GAS LISTING /tmp/ccmNshZh.s 			page 6


  51:src/Sem.cpp   **** 
 160              		.loc 1 51 1
 161 00c0 83308101 		ld	ra,24(sp)
 162              		.cfi_remember_state
 163              		.cfi_restore 1
 164 00c4 03340101 		ld	s0,16(sp)
 165              		.cfi_restore 8
 166              		.cfi_def_cfa 2, 32
 167 00c8 83348100 		ld	s1,8(sp)
 168              		.cfi_restore 9
 169              	.LVL10:
 170 00cc 03390100 		ld	s2,0(sp)
 171              		.cfi_restore 18
 172              	.LVL11:
 173 00d0 13010102 		addi	sp,sp,32
 174              		.cfi_def_cfa_offset 0
 175 00d4 67800000 		jr	ra
 176              	.LVL12:
 177              	.L11:
 178              		.cfi_restore_state
  45:src/Sem.cpp   ****     else{
 179              		.loc 1 45 9 is_stmt 1
  45:src/Sem.cpp   ****     else{
 180              		.loc 1 45 21 is_stmt 0
 181 00d8 23B4A400 		sd	a0,8(s1)
  45:src/Sem.cpp   ****     else{
 182              		.loc 1 45 14
 183 00dc 23B0A400 		sd	a0,0(s1)
 184 00e0 6FF01FFE 		j	.L7
 185              		.cfi_endproc
 186              	.LFE42:
 188              		.align	2
 189              		.globl	_ZN3Sem5blockEv
 191              	_ZN3Sem5blockEv:
 192              	.LFB40:
  27:src/Sem.cpp   ****     put(TCB::running);
 193              		.loc 1 27 20 is_stmt 1
 194              		.cfi_startproc
 195              	.LVL13:
 196 00e4 130101FE 		addi	sp,sp,-32
 197              		.cfi_def_cfa_offset 32
 198 00e8 233C1100 		sd	ra,24(sp)
 199 00ec 23388100 		sd	s0,16(sp)
 200 00f0 23349100 		sd	s1,8(sp)
 201              		.cfi_offset 1, -8
 202              		.cfi_offset 8, -16
 203              		.cfi_offset 9, -24
 204 00f4 13040102 		addi	s0,sp,32
 205              		.cfi_def_cfa 8, 0
  28:src/Sem.cpp   ****     TCB::running->setState(TCB::STATE::BLOCKED);
 206              		.loc 1 28 5
  28:src/Sem.cpp   ****     TCB::running->setState(TCB::STATE::BLOCKED);
 207              		.loc 1 28 8 is_stmt 0
 208 00f8 97040000 		la	s1,_ZN3TCB7runningE
 208      83B40400 
 209 0100 83B50400 		ld	a1,0(s1)
 210 0104 97000000 		call	_ZN3Sem3putEP3TCB
GAS LISTING /tmp/ccmNshZh.s 			page 7


 210      E7800000 
 211              	.LVL14:
  29:src/Sem.cpp   ****     TCB::dispatch();
 212              		.loc 1 29 5 is_stmt 1
  29:src/Sem.cpp   ****     TCB::dispatch();
 213              		.loc 1 29 27 is_stmt 0
 214 010c 83B70400 		ld	a5,0(s1)
 215              	.LVL15:
 216              	.LBB15:
 217              	.LBB16:
 218              		.file 3 "src/../h/TCB.h"
   1:src/../h/TCB.h **** //
   2:src/../h/TCB.h **** // Created by os on 7/17/23.
   3:src/../h/TCB.h **** //
   4:src/../h/TCB.h **** 
   5:src/../h/TCB.h **** #ifndef PROJECT_BASE_TCB_H
   6:src/../h/TCB.h **** #define PROJECT_BASE_TCB_H
   7:src/../h/TCB.h **** 
   8:src/../h/TCB.h **** #include "Scheduler.h"
   9:src/../h/TCB.h **** #include "Riscv.h"
  10:src/../h/TCB.h **** #include "Sem.h"
  11:src/../h/TCB.h **** #include "syscall_c.hpp"
  12:src/../h/TCB.h **** 
  13:src/../h/TCB.h **** class Sem;
  14:src/../h/TCB.h **** 
  15:src/../h/TCB.h **** class TCB {
  16:src/../h/TCB.h **** public:
  17:src/../h/TCB.h ****     using Body = void (*)(void*);
  18:src/../h/TCB.h ****     enum STATE{FINISHED, READY, BLOCKED, SLEEPING, IDLE};
  19:src/../h/TCB.h **** 
  20:src/../h/TCB.h ****     ~TCB(){
  21:src/../h/TCB.h ****         running->stack -= (DEFAULT_STACK_SIZE - 1);
  22:src/../h/TCB.h ****         MemoryAllocator::mem_free(running->stack);
  23:src/../h/TCB.h ****         //mozda bi trebao syscall
  24:src/../h/TCB.h ****     }
  25:src/../h/TCB.h **** 
  26:src/../h/TCB.h ****     void *operator new(size_t size);
  27:src/../h/TCB.h ****     void operator delete(void *ptr);
  28:src/../h/TCB.h **** 
  29:src/../h/TCB.h **** private:
  30:src/../h/TCB.h ****     TCB(Body body, uint64* stack, void* arg, uint64 timeSlice) :
  31:src/../h/TCB.h ****         body(body),
  32:src/../h/TCB.h ****         stack(stack),
  33:src/../h/TCB.h ****         context({(uint64) threadWrapper,
  34:src/../h/TCB.h ****                  (uint64) stack
  35:src/../h/TCB.h ****                 }),
  36:src/../h/TCB.h ****         arg(arg),
  37:src/../h/TCB.h ****         timeSlice(timeSlice),
  38:src/../h/TCB.h ****         restimeSlice(timeSlice),
  39:src/../h/TCB.h ****         state(READY)
  40:src/../h/TCB.h ****     {
  41:src/../h/TCB.h ****         head = nullptr;
  42:src/../h/TCB.h ****         retFromClosedSem = false;
  43:src/../h/TCB.h ****     }
  44:src/../h/TCB.h **** 
  45:src/../h/TCB.h ****     struct Context
  46:src/../h/TCB.h ****     {
GAS LISTING /tmp/ccmNshZh.s 			page 8


  47:src/../h/TCB.h ****         uint64 ra;
  48:src/../h/TCB.h ****         uint64 sp;
  49:src/../h/TCB.h ****     };
  50:src/../h/TCB.h **** 
  51:src/../h/TCB.h ****     struct Node{
  52:src/../h/TCB.h ****         Sem* data;
  53:src/../h/TCB.h ****         Node* next;
  54:src/../h/TCB.h **** 
  55:src/../h/TCB.h ****         void *operator new(size_t size);
  56:src/../h/TCB.h ****         void operator delete(void *ptr);
  57:src/../h/TCB.h ****     };
  58:src/../h/TCB.h **** 
  59:src/../h/TCB.h ****     void pushJoinSem(Sem* data);
  60:src/../h/TCB.h ****     void notifayAllJoinSem();
  61:src/../h/TCB.h ****     void join(TCB* thread);
  62:src/../h/TCB.h **** 
  63:src/../h/TCB.h ****     static TCB *running;
  64:src/../h/TCB.h **** 
  65:src/../h/TCB.h ****     Body body;
  66:src/../h/TCB.h ****     uint64 *stack;
  67:src/../h/TCB.h ****     Context context;
  68:src/../h/TCB.h ****     void* arg;
  69:src/../h/TCB.h ****     uint64 timeSlice;
  70:src/../h/TCB.h ****     uint64 restimeSlice;
  71:src/../h/TCB.h ****     STATE state;
  72:src/../h/TCB.h ****     Node * head;
  73:src/../h/TCB.h ****     bool retFromClosedSem;
  74:src/../h/TCB.h **** 
  75:src/../h/TCB.h ****     bool isFinished() const { return state == STATE::FINISHED; }
  76:src/../h/TCB.h ****     void setState(STATE value) { state = value; }
 219              		.loc 3 76 34 is_stmt 1
 220              		.loc 3 76 40 is_stmt 0
 221 0110 13072000 		li	a4,2
 222 0114 23ACE702 		sw	a4,56(a5)
 223              	.LVL16:
 224              	.LBE16:
 225              	.LBE15:
  30:src/Sem.cpp   **** }
 226              		.loc 1 30 5 is_stmt 1
  30:src/Sem.cpp   **** }
 227              		.loc 1 30 18 is_stmt 0
 228 0118 97000000 		call	_ZN3TCB8dispatchEv@plt
 228      E7800000 
 229              	.LVL17:
  31:src/Sem.cpp   **** 
 230              		.loc 1 31 1
 231 0120 83308101 		ld	ra,24(sp)
 232              		.cfi_restore 1
 233 0124 03340101 		ld	s0,16(sp)
 234              		.cfi_restore 8
 235              		.cfi_def_cfa 2, 32
 236 0128 83348100 		ld	s1,8(sp)
 237              		.cfi_restore 9
 238 012c 13010102 		addi	sp,sp,32
 239              		.cfi_def_cfa_offset 0
 240 0130 67800000 		jr	ra
 241              		.cfi_endproc
GAS LISTING /tmp/ccmNshZh.s 			page 9


 242              	.LFE40:
 244              		.align	2
 245              		.globl	_ZN3Sem4waitEv
 247              	_ZN3Sem4waitEv:
 248              	.LFB38:
  16:src/Sem.cpp   ****     if (--val<0) {
 249              		.loc 1 16 19 is_stmt 1
 250              		.cfi_startproc
 251              	.LVL18:
  17:src/Sem.cpp   ****         block();
 252              		.loc 1 17 5
  17:src/Sem.cpp   ****         block();
 253              		.loc 1 17 11 is_stmt 0
 254 0134 83270501 		lw	a5,16(a0)
  17:src/Sem.cpp   ****         block();
 255              		.loc 1 17 9
 256 0138 9B87F7FF 		addiw	a5,a5,-1
  17:src/Sem.cpp   ****         block();
 257              		.loc 1 17 14
 258 013c 2328F500 		sw	a5,16(a0)
  17:src/Sem.cpp   ****         block();
 259              		.loc 1 17 5
 260 0140 13970702 		slli	a4,a5,32
 261 0144 63440700 		bltz	a4,.L20
 262 0148 67800000 		ret
 263              	.L20:
  16:src/Sem.cpp   ****     if (--val<0) {
 264              		.loc 1 16 19
 265 014c 130101FF 		addi	sp,sp,-16
 266              		.cfi_def_cfa_offset 16
 267 0150 23341100 		sd	ra,8(sp)
 268 0154 23308100 		sd	s0,0(sp)
 269              		.cfi_offset 1, -8
 270              		.cfi_offset 8, -16
 271 0158 13040101 		addi	s0,sp,16
 272              		.cfi_def_cfa 8, 0
  18:src/Sem.cpp   ****     }
 273              		.loc 1 18 9 is_stmt 1
  18:src/Sem.cpp   ****     }
 274              		.loc 1 18 14 is_stmt 0
 275 015c 97000000 		call	_ZN3Sem5blockEv
 275      E7800000 
 276              	.LVL19:
  20:src/Sem.cpp   **** 
 277              		.loc 1 20 1
 278 0164 83308100 		ld	ra,8(sp)
 279              		.cfi_restore 1
 280 0168 03340100 		ld	s0,0(sp)
 281              		.cfi_restore 8
 282              		.cfi_def_cfa 2, 16
 283 016c 13010101 		addi	sp,sp,16
 284              		.cfi_def_cfa_offset 0
 285 0170 67800000 		jr	ra
 286              		.cfi_endproc
 287              	.LFE38:
 289              		.align	2
 290              		.globl	_ZN3Sem4NodedlEPv
GAS LISTING /tmp/ccmNshZh.s 			page 10


 292              	_ZN3Sem4NodedlEPv:
 293              	.LFB47:
  77:src/Sem.cpp   **** 
  78:src/Sem.cpp   **** void Sem::Node::operator delete(void *ptr) {
 294              		.loc 1 78 44 is_stmt 1
 295              		.cfi_startproc
 296              	.LVL20:
 297 0174 130101FF 		addi	sp,sp,-16
 298              		.cfi_def_cfa_offset 16
 299 0178 23341100 		sd	ra,8(sp)
 300 017c 23308100 		sd	s0,0(sp)
 301              		.cfi_offset 1, -8
 302              		.cfi_offset 8, -16
 303 0180 13040101 		addi	s0,sp,16
 304              		.cfi_def_cfa 8, 0
  79:src/Sem.cpp   ****     MemoryAllocator::mem_free(ptr);
 305              		.loc 1 79 5
 306              		.loc 1 79 30 is_stmt 0
 307 0184 97000000 		call	_ZN15MemoryAllocator8mem_freeEPv@plt
 307      E7800000 
 308              	.LVL21:
  80:src/Sem.cpp   **** }
 309              		.loc 1 80 1
 310 018c 83308100 		ld	ra,8(sp)
 311              		.cfi_restore 1
 312 0190 03340100 		ld	s0,0(sp)
 313              		.cfi_restore 8
 314              		.cfi_def_cfa 2, 16
 315 0194 13010101 		addi	sp,sp,16
 316              		.cfi_def_cfa_offset 0
 317 0198 67800000 		jr	ra
 318              		.cfi_endproc
 319              	.LFE47:
 321              		.align	2
 322              		.globl	_ZN3Sem3getEv
 324              	_ZN3Sem3getEv:
 325              	.LFB43:
  53:src/Sem.cpp   ****     if(!head) return nullptr;
 326              		.loc 1 53 17 is_stmt 1
 327              		.cfi_startproc
 328              	.LVL22:
 329 019c 130101FE 		addi	sp,sp,-32
 330              		.cfi_def_cfa_offset 32
 331 01a0 233C1100 		sd	ra,24(sp)
 332 01a4 23388100 		sd	s0,16(sp)
 333 01a8 23349100 		sd	s1,8(sp)
 334 01ac 23302101 		sd	s2,0(sp)
 335              		.cfi_offset 1, -8
 336              		.cfi_offset 8, -16
 337              		.cfi_offset 9, -24
 338              		.cfi_offset 18, -32
 339 01b0 13040102 		addi	s0,sp,32
 340              		.cfi_def_cfa 8, 0
 341 01b4 93040500 		mv	s1,a0
  54:src/Sem.cpp   ****     TCB* data = head->data;
 342              		.loc 1 54 5
  54:src/Sem.cpp   ****     TCB* data = head->data;
GAS LISTING /tmp/ccmNshZh.s 			page 11


 343              		.loc 1 54 9 is_stmt 0
 344 01b8 03350500 		ld	a0,0(a0)
 345              	.LVL23:
  54:src/Sem.cpp   ****     TCB* data = head->data;
 346              		.loc 1 54 5
 347 01bc 63020504 		beqz	a0,.L25
  55:src/Sem.cpp   ****     Node* prev = head;
 348              		.loc 1 55 5 is_stmt 1
  55:src/Sem.cpp   ****     Node* prev = head;
 349              		.loc 1 55 10 is_stmt 0
 350 01c0 03390500 		ld	s2,0(a0)
 351              	.LVL24:
  56:src/Sem.cpp   **** 
 352              		.loc 1 56 5 is_stmt 1
  58:src/Sem.cpp   ****     delete prev;
 353              		.loc 1 58 5
  58:src/Sem.cpp   ****     delete prev;
 354              		.loc 1 58 18 is_stmt 0
 355 01c4 83378500 		ld	a5,8(a0)
  58:src/Sem.cpp   ****     delete prev;
 356              		.loc 1 58 10
 357 01c8 23B0F400 		sd	a5,0(s1)
  59:src/Sem.cpp   **** 
 358              		.loc 1 59 5 is_stmt 1
  59:src/Sem.cpp   **** 
 359              		.loc 1 59 12 is_stmt 0
 360 01cc 97000000 		call	_ZN3Sem4NodedlEPv
 360      E7800000 
 361              	.LVL25:
  61:src/Sem.cpp   ****         tail = nullptr;
 362              		.loc 1 61 5 is_stmt 1
  61:src/Sem.cpp   ****         tail = nullptr;
 363              		.loc 1 61 8 is_stmt 0
 364 01d4 83B70400 		ld	a5,0(s1)
  61:src/Sem.cpp   ****         tail = nullptr;
 365              		.loc 1 61 5
 366 01d8 63800702 		beqz	a5,.L27
 367              	.LVL26:
 368              	.L23:
  64:src/Sem.cpp   **** 
 369              		.loc 1 64 1
 370 01dc 13050900 		mv	a0,s2
 371 01e0 83308101 		ld	ra,24(sp)
 372              		.cfi_remember_state
 373              		.cfi_restore 1
 374 01e4 03340101 		ld	s0,16(sp)
 375              		.cfi_restore 8
 376              		.cfi_def_cfa 2, 32
 377 01e8 83348100 		ld	s1,8(sp)
 378              		.cfi_restore 9
 379              	.LVL27:
 380 01ec 03390100 		ld	s2,0(sp)
 381              		.cfi_restore 18
 382 01f0 13010102 		addi	sp,sp,32
 383              		.cfi_def_cfa_offset 0
 384 01f4 67800000 		jr	ra
 385              	.LVL28:
GAS LISTING /tmp/ccmNshZh.s 			page 12


 386              	.L27:
 387              		.cfi_restore_state
  62:src/Sem.cpp   ****     return data;
 388              		.loc 1 62 9 is_stmt 1
  62:src/Sem.cpp   ****     return data;
 389              		.loc 1 62 14 is_stmt 0
 390 01f8 23B40400 		sd	zero,8(s1)
 391 01fc 6FF01FFE 		j	.L23
 392              	.LVL29:
 393              	.L25:
  54:src/Sem.cpp   ****     TCB* data = head->data;
 394              		.loc 1 54 22
 395 0200 13090500 		mv	s2,a0
 396 0204 6FF09FFD 		j	.L23
 397              		.cfi_endproc
 398              	.LFE43:
 400              		.align	2
 401              		.globl	_ZN3SemD2Ev
 403              	_ZN3SemD2Ev:
 404              	.LFB36:
   7:src/Sem.cpp   ****     while((t = get()) != nullptr){
 405              		.loc 1 7 1 is_stmt 1
 406              		.cfi_startproc
 407              		.cfi_personality 0x9b,DW.ref.__gxx_personality_v0
 408              		.cfi_lsda 0x1b,.LLSDA36
 409              	.LVL30:
 410 0208 130101FE 		addi	sp,sp,-32
 411              		.cfi_def_cfa_offset 32
 412 020c 233C1100 		sd	ra,24(sp)
 413 0210 23388100 		sd	s0,16(sp)
 414 0214 23349100 		sd	s1,8(sp)
 415              		.cfi_offset 1, -8
 416              		.cfi_offset 8, -16
 417              		.cfi_offset 9, -24
 418 0218 13040102 		addi	s0,sp,32
 419              		.cfi_def_cfa 8, 0
 420 021c 93040500 		mv	s1,a0
 421              	.LVL31:
 422              	.L30:
 423              	.LBB17:
   8:src/Sem.cpp   ****     while((t = get()) != nullptr){
 424              		.loc 1 8 5
   9:src/Sem.cpp   ****         t->setState(TCB::STATE::READY);
 425              		.loc 1 9 5
   9:src/Sem.cpp   ****         t->setState(TCB::STATE::READY);
 426              		.loc 1 9 23
   9:src/Sem.cpp   ****         t->setState(TCB::STATE::READY);
 427              		.loc 1 9 19 is_stmt 0
 428 0220 13850400 		mv	a0,s1
 429 0224 97000000 		call	_ZN3Sem3getEv
 429      E7800000 
 430              	.LVL32:
   9:src/Sem.cpp   ****         t->setState(TCB::STATE::READY);
 431              		.loc 1 9 23
 432 022c 630E0500 		beqz	a0,.L28
  10:src/Sem.cpp   ****         t->retFromClosedSem = true;
 433              		.loc 1 10 9 is_stmt 1
GAS LISTING /tmp/ccmNshZh.s 			page 13


 434              	.LVL33:
 435              	.LBB18:
 436              	.LBB19:
 437              		.loc 3 76 34
 438              		.loc 3 76 40 is_stmt 0
 439 0230 93071000 		li	a5,1
 440 0234 232CF502 		sw	a5,56(a0)
 441              	.LVL34:
 442              	.LBE19:
 443              	.LBE18:
  11:src/Sem.cpp   ****         Scheduler::put(t);
 444              		.loc 1 11 9 is_stmt 1
  11:src/Sem.cpp   ****         Scheduler::put(t);
 445              		.loc 1 11 29 is_stmt 0
 446 0238 2304F504 		sb	a5,72(a0)
  12:src/Sem.cpp   ****     }
 447              		.loc 1 12 9 is_stmt 1
  12:src/Sem.cpp   ****     }
 448              		.loc 1 12 23 is_stmt 0
 449 023c 97000000 		call	_ZN9Scheduler3putEP3TCB@plt
 449      E7800000 
 450              	.LVL35:
   9:src/Sem.cpp   ****         t->setState(TCB::STATE::READY);
 451              		.loc 1 9 5
 452 0244 6FF0DFFD 		j	.L30
 453              	.LVL36:
 454              	.L28:
 455              	.LBE17:
  14:src/Sem.cpp   **** 
 456              		.loc 1 14 1
 457 0248 83308101 		ld	ra,24(sp)
 458              		.cfi_restore 1
 459 024c 03340101 		ld	s0,16(sp)
 460              		.cfi_restore 8
 461              		.cfi_def_cfa 2, 32
 462 0250 83348100 		ld	s1,8(sp)
 463              		.cfi_restore 9
 464              	.LVL37:
 465 0254 13010102 		addi	sp,sp,32
 466              		.cfi_def_cfa_offset 0
 467 0258 67800000 		jr	ra
 468              		.cfi_endproc
 469              	.LFE36:
 470              		.globl	__gxx_personality_v0
 471              		.section	.gcc_except_table,"a",@progbits
 472              	.LLSDA36:
 473 0000 FF       		.byte	0xff
 474 0001 FF       		.byte	0xff
 475 0002 03       		.byte	0x3
 476 0003 00       		.byte	0
 477              		.text
 479              		.globl	_ZN3SemD1Ev
 480              		.set	_ZN3SemD1Ev,_ZN3SemD2Ev
 481              		.align	2
 482              		.globl	_ZN3Sem7deblockEv
 484              	_ZN3Sem7deblockEv:
 485              	.LFB41:
GAS LISTING /tmp/ccmNshZh.s 			page 14


  33:src/Sem.cpp   ****     TCB* t = get();
 486              		.loc 1 33 22 is_stmt 1
 487              		.cfi_startproc
 488              	.LVL38:
 489 025c 130101FF 		addi	sp,sp,-16
 490              		.cfi_def_cfa_offset 16
 491 0260 23341100 		sd	ra,8(sp)
 492 0264 23308100 		sd	s0,0(sp)
 493              		.cfi_offset 1, -8
 494              		.cfi_offset 8, -16
 495 0268 13040101 		addi	s0,sp,16
 496              		.cfi_def_cfa 8, 0
  34:src/Sem.cpp   ****     t->setState(TCB::STATE::READY);
 497              		.loc 1 34 5
  34:src/Sem.cpp   ****     t->setState(TCB::STATE::READY);
 498              		.loc 1 34 17 is_stmt 0
 499 026c 97000000 		call	_ZN3Sem3getEv
 499      E7800000 
 500              	.LVL39:
  35:src/Sem.cpp   ****     Scheduler::put(t);
 501              		.loc 1 35 5 is_stmt 1
 502              	.LBB20:
 503              	.LBB21:
 504              		.loc 3 76 34
 505              		.loc 3 76 40 is_stmt 0
 506 0274 93071000 		li	a5,1
 507 0278 232CF502 		sw	a5,56(a0)
 508              	.LVL40:
 509              	.LBE21:
 510              	.LBE20:
  36:src/Sem.cpp   **** }
 511              		.loc 1 36 5 is_stmt 1
  36:src/Sem.cpp   **** }
 512              		.loc 1 36 19 is_stmt 0
 513 027c 97000000 		call	_ZN9Scheduler3putEP3TCB@plt
 513      E7800000 
 514              	.LVL41:
  37:src/Sem.cpp   **** 
 515              		.loc 1 37 1
 516 0284 83308100 		ld	ra,8(sp)
 517              		.cfi_restore 1
 518 0288 03340100 		ld	s0,0(sp)
 519              		.cfi_restore 8
 520              		.cfi_def_cfa 2, 16
 521 028c 13010101 		addi	sp,sp,16
 522              		.cfi_def_cfa_offset 0
 523 0290 67800000 		jr	ra
 524              		.cfi_endproc
 525              	.LFE41:
 527              		.align	2
 528              		.globl	_ZN3Sem6signalEv
 530              	_ZN3Sem6signalEv:
 531              	.LFB39:
  22:src/Sem.cpp   ****     if (val++<0)
 532              		.loc 1 22 21 is_stmt 1
 533              		.cfi_startproc
 534              	.LVL42:
GAS LISTING /tmp/ccmNshZh.s 			page 15


  23:src/Sem.cpp   ****         deblock();
 535              		.loc 1 23 5
  23:src/Sem.cpp   ****         deblock();
 536              		.loc 1 23 9 is_stmt 0
 537 0294 83270501 		lw	a5,16(a0)
  23:src/Sem.cpp   ****         deblock();
 538              		.loc 1 23 12
 539 0298 1B871700 		addiw	a4,a5,1
 540 029c 2328E500 		sw	a4,16(a0)
  23:src/Sem.cpp   ****         deblock();
 541              		.loc 1 23 5
 542 02a0 63C40700 		bltz	a5,.L40
 543 02a4 67800000 		ret
 544              	.L40:
  22:src/Sem.cpp   ****     if (val++<0)
 545              		.loc 1 22 21
 546 02a8 130101FF 		addi	sp,sp,-16
 547              		.cfi_def_cfa_offset 16
 548 02ac 23341100 		sd	ra,8(sp)
 549 02b0 23308100 		sd	s0,0(sp)
 550              		.cfi_offset 1, -8
 551              		.cfi_offset 8, -16
 552 02b4 13040101 		addi	s0,sp,16
 553              		.cfi_def_cfa 8, 0
  24:src/Sem.cpp   **** }
 554              		.loc 1 24 9 is_stmt 1
  24:src/Sem.cpp   **** }
 555              		.loc 1 24 16 is_stmt 0
 556 02b8 97000000 		call	_ZN3Sem7deblockEv
 556      E7800000 
 557              	.LVL43:
  25:src/Sem.cpp   **** 
 558              		.loc 1 25 1
 559 02c0 83308100 		ld	ra,8(sp)
 560              		.cfi_restore 1
 561 02c4 03340100 		ld	s0,0(sp)
 562              		.cfi_restore 8
 563              		.cfi_def_cfa 2, 16
 564 02c8 13010101 		addi	sp,sp,16
 565              		.cfi_def_cfa_offset 0
 566 02cc 67800000 		jr	ra
 567              		.cfi_endproc
 568              	.LFE39:
 570              	.Letext0:
 571              		.file 4 "src/../h/../lib/hw.h"
 572              		.file 5 "src/../h/MemoryAllocator.h"
 573              		.file 6 "src/../h/Scheduler.h"
 574              		.file 7 "src/../h/syscall_c.hpp"
 3650              		.align	3
 3653              	DW.ref.__gxx_personality_v0:
 3654 0000 00000000 		.dword	__gxx_personality_v0
 3654      00000000 
 3655              		.ident	"GCC: (Ubuntu 9.4.0-1ubuntu1~20.04) 9.4.0"
 3656              		.section	.note.GNU-stack,"",@progbits
GAS LISTING /tmp/ccmNshZh.s 			page 16

