GAS LISTING /tmp/ccPejsg0.s 			page 1


   1              		.file	"syscall_c.cpp"
   2              		.option pic
   3              		.option norelax
   4              		.text
   5              	.Ltext0:
   6              		.align	2
   7              		.globl	_Z9mem_allocm
   9              	_Z9mem_allocm:
  10              	.LFB35:
  11              		.file 1 "src/syscall_c.cpp"
   1:src/syscall_c.cpp **** //
   2:src/syscall_c.cpp **** // Created by os on 7/4/23.
   3:src/syscall_c.cpp **** //
   4:src/syscall_c.cpp **** #include "../h/syscall_c.hpp"
   5:src/syscall_c.cpp **** 
   6:src/syscall_c.cpp **** void *mem_alloc(size_t size) {
  12              		.loc 1 6 30
  13              		.cfi_startproc
  14              	.LVL0:
  15 0000 130101FF 		addi	sp,sp,-16
  16              		.cfi_def_cfa_offset 16
  17 0004 23348100 		sd	s0,8(sp)
  18              		.cfi_offset 8, -8
  19 0008 13040101 		addi	s0,sp,16
  20              		.cfi_def_cfa 8, 0
   7:src/syscall_c.cpp ****     __asm__ volatile("mv a1, a0");
  21              		.loc 1 7 5
  22              		.loc 1 7 34 is_stmt 0
  23              	#APP
  24              	# 7 "src/syscall_c.cpp" 1
   8              	    __asm__ volatile("li a0, 0x01");
  25              		mv a1, a0
  26              	# 0 "" 2
  27              		.loc 1 8 5 is_stmt 1
  28              		.loc 1 8 36 is_stmt 0
  29              	# 8 "src/syscall_c.cpp" 1
   9              	    __asm__ volatile("ecall");
  30              		li a0, 0x01
  31              	# 0 "" 2
  32              		.loc 1 9 5 is_stmt 1
  33              		.loc 1 9 30 is_stmt 0
  34              	# 9 "src/syscall_c.cpp" 1
  10              	    void * retval;
  35              		ecall
  36              	# 0 "" 2
  37              		.loc 1 10 5 is_stmt 1
  11:src/syscall_c.cpp ****     __asm__ volatile("mv %[ret], a0" : [ret] "=r" (retval));
  38              		.loc 1 11 5
  39              		.loc 1 11 60 is_stmt 0
  40              	# 11 "src/syscall_c.cpp" 1
  12              	    return retval;
  41              		mv a0, a0
  42              	# 0 "" 2
  43              	.LVL1:
  44              		.loc 1 12 5 is_stmt 1
  13:src/syscall_c.cpp **** }
  45              		.loc 1 13 1 is_stmt 0
GAS LISTING /tmp/ccPejsg0.s 			page 2


  46              	#NO_APP
  47 001c 03348100 		ld	s0,8(sp)
  48              		.cfi_restore 8
  49              		.cfi_def_cfa 2, 16
  50 0020 13010101 		addi	sp,sp,16
  51              		.cfi_def_cfa_offset 0
  52 0024 67800000 		jr	ra
  53              		.cfi_endproc
  54              	.LFE35:
  56              		.align	2
  57              		.globl	_Z8mem_freePv
  59              	_Z8mem_freePv:
  60              	.LFB36:
  14:src/syscall_c.cpp **** 
  15:src/syscall_c.cpp **** int mem_free(void * ptr) {
  61              		.loc 1 15 26 is_stmt 1
  62              		.cfi_startproc
  63              	.LVL2:
  64 0028 130101FF 		addi	sp,sp,-16
  65              		.cfi_def_cfa_offset 16
  66 002c 23348100 		sd	s0,8(sp)
  67              		.cfi_offset 8, -8
  68 0030 13040101 		addi	s0,sp,16
  69              		.cfi_def_cfa 8, 0
  16:src/syscall_c.cpp ****     __asm__ volatile("mv a1, a0");
  70              		.loc 1 16 5
  71              		.loc 1 16 34 is_stmt 0
  72              	#APP
  73              	# 16 "src/syscall_c.cpp" 1
  17              	    __asm__ volatile("li a0, 0x02");
  74              		mv a1, a0
  75              	# 0 "" 2
  76              		.loc 1 17 5 is_stmt 1
  77              		.loc 1 17 36 is_stmt 0
  78              	# 17 "src/syscall_c.cpp" 1
  18              	    __asm__ volatile("ecall");
  79              		li a0, 0x02
  80              	# 0 "" 2
  81              		.loc 1 18 5 is_stmt 1
  82              		.loc 1 18 30 is_stmt 0
  83              	# 18 "src/syscall_c.cpp" 1
  19              	    int retval;
  84              		ecall
  85              	# 0 "" 2
  86              		.loc 1 19 5 is_stmt 1
  20:src/syscall_c.cpp ****     __asm__ volatile("mv %[ret], a0" : [ret] "=r" (retval));
  87              		.loc 1 20 5
  88              		.loc 1 20 60 is_stmt 0
  89              	# 20 "src/syscall_c.cpp" 1
  21              	    return retval;
  90              		mv a0, a0
  91              	# 0 "" 2
  92              	.LVL3:
  93              		.loc 1 21 5 is_stmt 1
  22:src/syscall_c.cpp **** }
  94              		.loc 1 22 1 is_stmt 0
  95              	#NO_APP
GAS LISTING /tmp/ccPejsg0.s 			page 3


  96 0044 1B050500 		sext.w	a0,a0
  97 0048 03348100 		ld	s0,8(sp)
  98              		.cfi_restore 8
  99              		.cfi_def_cfa 2, 16
 100 004c 13010101 		addi	sp,sp,16
 101              		.cfi_def_cfa_offset 0
 102 0050 67800000 		jr	ra
 103              		.cfi_endproc
 104              	.LFE36:
 106              		.align	2
 107              		.globl	_Z13thread_createPP3TCBPFvPvES2_
 109              	_Z13thread_createPP3TCBPFvPvES2_:
 110              	.LFB37:
  23:src/syscall_c.cpp **** 
  24:src/syscall_c.cpp **** int thread_create(thread_t *handle, void (*start_routine)(void *), void *arg) {
 111              		.loc 1 24 79 is_stmt 1
 112              		.cfi_startproc
 113              	.LVL4:
 114 0054 130101FD 		addi	sp,sp,-48
 115              		.cfi_def_cfa_offset 48
 116 0058 23341102 		sd	ra,40(sp)
 117 005c 23308102 		sd	s0,32(sp)
 118 0060 233C9100 		sd	s1,24(sp)
 119 0064 23382101 		sd	s2,16(sp)
 120 0068 23343101 		sd	s3,8(sp)
 121              		.cfi_offset 1, -8
 122              		.cfi_offset 8, -16
 123              		.cfi_offset 9, -24
 124              		.cfi_offset 18, -32
 125              		.cfi_offset 19, -40
 126 006c 13040103 		addi	s0,sp,48
 127              		.cfi_def_cfa 8, 0
 128 0070 93040500 		mv	s1,a0
 129 0074 13890500 		mv	s2,a1
 130 0078 93090600 		mv	s3,a2
  25:src/syscall_c.cpp ****     thread_t *hand = handle;
 131              		.loc 1 25 5
 132              	.LVL5:
  26:src/syscall_c.cpp ****     uint64* body = (uint64*) start_routine;
 133              		.loc 1 26 5
  27:src/syscall_c.cpp ****     void* args = arg;
 134              		.loc 1 27 5
  28:src/syscall_c.cpp ****     uint64* stack = (uint64*) mem_alloc(DEFAULT_STACK_SIZE);
 135              		.loc 1 28 5
 136              		.loc 1 28 40 is_stmt 0
 137 007c 37150000 		li	a0,4096
 138              	.LVL6:
 139 0080 97000000 		call	_Z9mem_allocm
 139      E7800000 
 140              	.LVL7:
  29:src/syscall_c.cpp ****     if(stack == nullptr) return -1;
 141              		.loc 1 29 5 is_stmt 1
 142 0088 63060504 		beqz	a0,.L7
  30:src/syscall_c.cpp ****     stack+=DEFAULT_STACK_SIZE - 1;
 143              		.loc 1 30 5
 144              		.loc 1 30 10 is_stmt 0
 145 008c B7870000 		li	a5,32768
GAS LISTING /tmp/ccPejsg0.s 			page 4


 146 0090 938787FF 		addi	a5,a5,-8
 147 0094 B307F500 		add	a5,a0,a5
 148              	.LVL8:
  31:src/syscall_c.cpp ****     __asm__ volatile("mv a7, %[stack]" : : [stack] "r" (stack));
 149              		.loc 1 31 5 is_stmt 1
 150              		.loc 1 31 64 is_stmt 0
 151              	#APP
 152              	# 31 "src/syscall_c.cpp" 1
  32              	    __asm__ volatile("mv a6, %[args]" : : [args] "r" (args));
 153              		mv a7, a5
 154              	# 0 "" 2
 155              		.loc 1 32 5 is_stmt 1
 156              		.loc 1 32 61 is_stmt 0
 157              	# 32 "src/syscall_c.cpp" 1
  33              	    __asm__ volatile("mv a2, %[body]" : : [body] "r" (body));
 158              		mv a6, s3
 159              	# 0 "" 2
 160              		.loc 1 33 5 is_stmt 1
 161              		.loc 1 33 61 is_stmt 0
 162              	# 33 "src/syscall_c.cpp" 1
  34              	    __asm__ volatile("mv a1, %[hand]" : : [hand] "r" (hand));
 163              		mv a2, s2
 164              	# 0 "" 2
 165              		.loc 1 34 5 is_stmt 1
 166              		.loc 1 34 61 is_stmt 0
 167              	# 34 "src/syscall_c.cpp" 1
  35              	    __asm__ volatile("li a0, 0x11");
 168              		mv a1, s1
 169              	# 0 "" 2
 170              		.loc 1 35 5 is_stmt 1
 171              		.loc 1 35 36 is_stmt 0
 172              	# 35 "src/syscall_c.cpp" 1
  36              	    __asm__ volatile("ecall");
 173              		li a0, 0x11
 174              	# 0 "" 2
 175              		.loc 1 36 5 is_stmt 1
 176              		.loc 1 36 30 is_stmt 0
 177              	# 36 "src/syscall_c.cpp" 1
  37              	    int retval;
 178              		ecall
 179              	# 0 "" 2
 180              		.loc 1 37 5 is_stmt 1
  38:src/syscall_c.cpp ****     __asm__ volatile("mv %[ret], a0" : [ret] "=r" (retval));
 181              		.loc 1 38 5
 182              		.loc 1 38 60 is_stmt 0
 183              	# 38 "src/syscall_c.cpp" 1
  39              	    return retval;
 184              		mv a0, a0
 185              	# 0 "" 2
 186              	#NO_APP
 187 00b4 1B050500 		sext.w	a0,a0
 188              	.LVL9:
 189              		.loc 1 39 5 is_stmt 1
 190              	.L6:
  40:src/syscall_c.cpp **** }
 191              		.loc 1 40 1 is_stmt 0
 192 00b8 83308102 		ld	ra,40(sp)
GAS LISTING /tmp/ccPejsg0.s 			page 5


 193              		.cfi_remember_state
 194              		.cfi_restore 1
 195 00bc 03340102 		ld	s0,32(sp)
 196              		.cfi_restore 8
 197              		.cfi_def_cfa 2, 48
 198 00c0 83348101 		ld	s1,24(sp)
 199              		.cfi_restore 9
 200              	.LVL10:
 201 00c4 03390101 		ld	s2,16(sp)
 202              		.cfi_restore 18
 203              	.LVL11:
 204 00c8 83398100 		ld	s3,8(sp)
 205              		.cfi_restore 19
 206              	.LVL12:
 207 00cc 13010103 		addi	sp,sp,48
 208              		.cfi_def_cfa_offset 0
 209 00d0 67800000 		jr	ra
 210              	.LVL13:
 211              	.L7:
 212              		.cfi_restore_state
  29:src/syscall_c.cpp ****     stack+=DEFAULT_STACK_SIZE - 1;
 213              		.loc 1 29 34
 214 00d4 1305F0FF 		li	a0,-1
 215              	.LVL14:
 216 00d8 6FF01FFE 		j	.L6
 217              		.cfi_endproc
 218              	.LFE37:
 220              		.align	2
 221              		.globl	_Z11thread_exitv
 223              	_Z11thread_exitv:
 224              	.LFB38:
  41:src/syscall_c.cpp **** 
  42:src/syscall_c.cpp **** int thread_exit() {
 225              		.loc 1 42 19 is_stmt 1
 226              		.cfi_startproc
 227 00dc 130101FF 		addi	sp,sp,-16
 228              		.cfi_def_cfa_offset 16
 229 00e0 23348100 		sd	s0,8(sp)
 230              		.cfi_offset 8, -8
 231 00e4 13040101 		addi	s0,sp,16
 232              		.cfi_def_cfa 8, 0
  43:src/syscall_c.cpp ****     __asm__ volatile("li a0, 0x12");
 233              		.loc 1 43 5
 234              		.loc 1 43 36 is_stmt 0
 235              	#APP
 236              	# 43 "src/syscall_c.cpp" 1
  44              	    __asm__ volatile("ecall");
 237              		li a0, 0x12
 238              	# 0 "" 2
 239              		.loc 1 44 5 is_stmt 1
 240              		.loc 1 44 30 is_stmt 0
 241              	# 44 "src/syscall_c.cpp" 1
  45              	    int retval;
 242              		ecall
 243              	# 0 "" 2
 244              		.loc 1 45 5 is_stmt 1
  46:src/syscall_c.cpp ****     __asm__ volatile("mv %[ret], a0" : [ret] "=r" (retval));
GAS LISTING /tmp/ccPejsg0.s 			page 6


 245              		.loc 1 46 5
 246              		.loc 1 46 60 is_stmt 0
 247              	# 46 "src/syscall_c.cpp" 1
  47              	    return retval;
 248              		mv a0, a0
 249              	# 0 "" 2
 250              	.LVL15:
 251              		.loc 1 47 5 is_stmt 1
  48:src/syscall_c.cpp **** }
 252              		.loc 1 48 1 is_stmt 0
 253              	#NO_APP
 254 00f4 1B050500 		sext.w	a0,a0
 255 00f8 03348100 		ld	s0,8(sp)
 256              		.cfi_restore 8
 257              		.cfi_def_cfa 2, 16
 258 00fc 13010101 		addi	sp,sp,16
 259              		.cfi_def_cfa_offset 0
 260 0100 67800000 		jr	ra
 261              		.cfi_endproc
 262              	.LFE38:
 264              		.align	2
 265              		.globl	_Z15thread_dispatchv
 267              	_Z15thread_dispatchv:
 268              	.LFB39:
  49:src/syscall_c.cpp **** 
  50:src/syscall_c.cpp **** void thread_dispatch() {
 269              		.loc 1 50 24 is_stmt 1
 270              		.cfi_startproc
 271 0104 130101FF 		addi	sp,sp,-16
 272              		.cfi_def_cfa_offset 16
 273 0108 23348100 		sd	s0,8(sp)
 274              		.cfi_offset 8, -8
 275 010c 13040101 		addi	s0,sp,16
 276              		.cfi_def_cfa 8, 0
  51:src/syscall_c.cpp ****     __asm__ volatile("li a0, 0x13");
 277              		.loc 1 51 5
 278              		.loc 1 51 36 is_stmt 0
 279              	#APP
 280              	# 51 "src/syscall_c.cpp" 1
  52              	    __asm__ volatile("ecall");
 281              		li a0, 0x13
 282              	# 0 "" 2
 283              		.loc 1 52 5 is_stmt 1
 284              		.loc 1 52 30 is_stmt 0
 285              	# 52 "src/syscall_c.cpp" 1
  53              	}
 286              		ecall
 287              	# 0 "" 2
 288              		.loc 1 53 1
 289              	#NO_APP
 290 0118 03348100 		ld	s0,8(sp)
 291              		.cfi_restore 8
 292              		.cfi_def_cfa 2, 16
 293 011c 13010101 		addi	sp,sp,16
 294              		.cfi_def_cfa_offset 0
 295 0120 67800000 		jr	ra
 296              		.cfi_endproc
GAS LISTING /tmp/ccPejsg0.s 			page 7


 297              	.LFE39:
 299              		.align	2
 300              		.globl	_Z11thread_joinP3TCB
 302              	_Z11thread_joinP3TCB:
 303              	.LFB40:
  54:src/syscall_c.cpp **** 
  55:src/syscall_c.cpp **** void thread_join(thread_t handle) {
 304              		.loc 1 55 35 is_stmt 1
 305              		.cfi_startproc
 306              	.LVL16:
 307 0124 130101FF 		addi	sp,sp,-16
 308              		.cfi_def_cfa_offset 16
 309 0128 23348100 		sd	s0,8(sp)
 310              		.cfi_offset 8, -8
 311 012c 13040101 		addi	s0,sp,16
 312              		.cfi_def_cfa 8, 0
  56:src/syscall_c.cpp ****     __asm__ volatile("mv a1, %[handle]" : : [handle] "r" (handle));
 313              		.loc 1 56 5
 314              		.loc 1 56 67 is_stmt 0
 315              	#APP
 316              	# 56 "src/syscall_c.cpp" 1
  57              	    __asm__ volatile("li a0, 0x14");
 317              		mv a1, a0
 318              	# 0 "" 2
 319              		.loc 1 57 5 is_stmt 1
 320              		.loc 1 57 36 is_stmt 0
 321              	# 57 "src/syscall_c.cpp" 1
  58              	    __asm__ volatile("ecall");
 322              		li a0, 0x14
 323              	# 0 "" 2
 324              		.loc 1 58 5 is_stmt 1
 325              		.loc 1 58 30 is_stmt 0
 326              	# 58 "src/syscall_c.cpp" 1
  59              	}
 327              		ecall
 328              	# 0 "" 2
 329              		.loc 1 59 1
 330              	#NO_APP
 331 013c 03348100 		ld	s0,8(sp)
 332              		.cfi_restore 8
 333              		.cfi_def_cfa 2, 16
 334 0140 13010101 		addi	sp,sp,16
 335              		.cfi_def_cfa_offset 0
 336 0144 67800000 		jr	ra
 337              		.cfi_endproc
 338              	.LFE40:
 340              		.align	2
 341              		.globl	_Z8sem_openPP3Semj
 343              	_Z8sem_openPP3Semj:
 344              	.LFB41:
  60:src/syscall_c.cpp **** 
  61:src/syscall_c.cpp **** int sem_open(sem_t *handle, unsigned int init) {
 345              		.loc 1 61 48 is_stmt 1
 346              		.cfi_startproc
 347              	.LVL17:
 348 0148 130101FF 		addi	sp,sp,-16
 349              		.cfi_def_cfa_offset 16
GAS LISTING /tmp/ccPejsg0.s 			page 8


 350 014c 23348100 		sd	s0,8(sp)
 351              		.cfi_offset 8, -8
 352 0150 13040101 		addi	s0,sp,16
 353              		.cfi_def_cfa 8, 0
  62:src/syscall_c.cpp ****     __asm__ volatile("mv a7, %[init]" : : [init] "r" (init));
 354              		.loc 1 62 5
 355              		.loc 1 62 61 is_stmt 0
 356              	#APP
 357              	# 62 "src/syscall_c.cpp" 1
  63              	    __asm__ volatile("mv a1, %[handle]" : : [handle] "r" (handle));
 358              		mv a7, a1
 359              	# 0 "" 2
 360              		.loc 1 63 5 is_stmt 1
 361              		.loc 1 63 67 is_stmt 0
 362              	# 63 "src/syscall_c.cpp" 1
  64              	    __asm__ volatile("li a0, 0x21");
 363              		mv a1, a0
 364              	# 0 "" 2
 365              		.loc 1 64 5 is_stmt 1
 366              		.loc 1 64 36 is_stmt 0
 367              	# 64 "src/syscall_c.cpp" 1
  65              	    __asm__ volatile("ecall");
 368              		li a0, 0x21
 369              	# 0 "" 2
 370              		.loc 1 65 5 is_stmt 1
 371              		.loc 1 65 30 is_stmt 0
 372              	# 65 "src/syscall_c.cpp" 1
  66              	    int retval;
 373              		ecall
 374              	# 0 "" 2
 375              		.loc 1 66 5 is_stmt 1
  67:src/syscall_c.cpp ****     __asm__ volatile("mv %[ret], a0" : [ret] "=r" (retval));
 376              		.loc 1 67 5
 377              		.loc 1 67 60 is_stmt 0
 378              	# 67 "src/syscall_c.cpp" 1
  68              	    return retval;
 379              		mv a0, a0
 380              	# 0 "" 2
 381              	.LVL18:
 382              		.loc 1 68 5 is_stmt 1
  69:src/syscall_c.cpp **** }
 383              		.loc 1 69 1 is_stmt 0
 384              	#NO_APP
 385 0168 1B050500 		sext.w	a0,a0
 386 016c 03348100 		ld	s0,8(sp)
 387              		.cfi_restore 8
 388              		.cfi_def_cfa 2, 16
 389 0170 13010101 		addi	sp,sp,16
 390              		.cfi_def_cfa_offset 0
 391 0174 67800000 		jr	ra
 392              		.cfi_endproc
 393              	.LFE41:
 395              		.align	2
 396              		.globl	_Z9sem_closeP3Sem
 398              	_Z9sem_closeP3Sem:
 399              	.LFB42:
  70:src/syscall_c.cpp **** 
GAS LISTING /tmp/ccPejsg0.s 			page 9


  71:src/syscall_c.cpp **** int sem_close(sem_t handle) {
 400              		.loc 1 71 29 is_stmt 1
 401              		.cfi_startproc
 402              	.LVL19:
 403 0178 130101FF 		addi	sp,sp,-16
 404              		.cfi_def_cfa_offset 16
 405 017c 23348100 		sd	s0,8(sp)
 406              		.cfi_offset 8, -8
 407 0180 13040101 		addi	s0,sp,16
 408              		.cfi_def_cfa 8, 0
  72:src/syscall_c.cpp ****     __asm__ volatile("mv a1, %[handle]" : : [handle] "r" (handle));
 409              		.loc 1 72 5
 410              		.loc 1 72 67 is_stmt 0
 411              	#APP
 412              	# 72 "src/syscall_c.cpp" 1
  73              	    __asm__ volatile("li a0, 0x22");
 413              		mv a1, a0
 414              	# 0 "" 2
 415              		.loc 1 73 5 is_stmt 1
 416              		.loc 1 73 36 is_stmt 0
 417              	# 73 "src/syscall_c.cpp" 1
  74              	    __asm__ volatile("ecall");
 418              		li a0, 0x22
 419              	# 0 "" 2
 420              		.loc 1 74 5 is_stmt 1
 421              		.loc 1 74 30 is_stmt 0
 422              	# 74 "src/syscall_c.cpp" 1
  75              	    int retval;
 423              		ecall
 424              	# 0 "" 2
 425              		.loc 1 75 5 is_stmt 1
  76:src/syscall_c.cpp ****     __asm__ volatile("mv %[ret], a0" : [ret] "=r" (retval));
 426              		.loc 1 76 5
 427              		.loc 1 76 60 is_stmt 0
 428              	# 76 "src/syscall_c.cpp" 1
  77              	    return retval;
 429              		mv a0, a0
 430              	# 0 "" 2
 431              	.LVL20:
 432              		.loc 1 77 5 is_stmt 1
  78:src/syscall_c.cpp **** }
 433              		.loc 1 78 1 is_stmt 0
 434              	#NO_APP
 435 0194 1B050500 		sext.w	a0,a0
 436 0198 03348100 		ld	s0,8(sp)
 437              		.cfi_restore 8
 438              		.cfi_def_cfa 2, 16
 439 019c 13010101 		addi	sp,sp,16
 440              		.cfi_def_cfa_offset 0
 441 01a0 67800000 		jr	ra
 442              		.cfi_endproc
 443              	.LFE42:
 445              		.align	2
 446              		.globl	_Z8sem_waitP3Sem
 448              	_Z8sem_waitP3Sem:
 449              	.LFB43:
  79:src/syscall_c.cpp **** 
GAS LISTING /tmp/ccPejsg0.s 			page 10


  80:src/syscall_c.cpp **** int sem_wait(sem_t id) {
 450              		.loc 1 80 24 is_stmt 1
 451              		.cfi_startproc
 452              	.LVL21:
 453 01a4 130101FF 		addi	sp,sp,-16
 454              		.cfi_def_cfa_offset 16
 455 01a8 23348100 		sd	s0,8(sp)
 456              		.cfi_offset 8, -8
 457 01ac 13040101 		addi	s0,sp,16
 458              		.cfi_def_cfa 8, 0
  81:src/syscall_c.cpp ****     __asm__ volatile("mv a1, %[id]" : : [id] "r" (id));
 459              		.loc 1 81 5
 460              		.loc 1 81 55 is_stmt 0
 461              	#APP
 462              	# 81 "src/syscall_c.cpp" 1
  82              	    __asm__ volatile("li a0, 0x23");
 463              		mv a1, a0
 464              	# 0 "" 2
 465              		.loc 1 82 5 is_stmt 1
 466              		.loc 1 82 36 is_stmt 0
 467              	# 82 "src/syscall_c.cpp" 1
  83              	    __asm__ volatile("ecall");
 468              		li a0, 0x23
 469              	# 0 "" 2
 470              		.loc 1 83 5 is_stmt 1
 471              		.loc 1 83 30 is_stmt 0
 472              	# 83 "src/syscall_c.cpp" 1
  84              	    int retval;
 473              		ecall
 474              	# 0 "" 2
 475              		.loc 1 84 5 is_stmt 1
  85:src/syscall_c.cpp ****     __asm__ volatile("mv %[ret], a0" : [ret] "=r" (retval));
 476              		.loc 1 85 5
 477              		.loc 1 85 60 is_stmt 0
 478              	# 85 "src/syscall_c.cpp" 1
  86              	    return retval;
 479              		mv a0, a0
 480              	# 0 "" 2
 481              	.LVL22:
 482              		.loc 1 86 5 is_stmt 1
  87:src/syscall_c.cpp **** }
 483              		.loc 1 87 1 is_stmt 0
 484              	#NO_APP
 485 01c0 1B050500 		sext.w	a0,a0
 486 01c4 03348100 		ld	s0,8(sp)
 487              		.cfi_restore 8
 488              		.cfi_def_cfa 2, 16
 489 01c8 13010101 		addi	sp,sp,16
 490              		.cfi_def_cfa_offset 0
 491 01cc 67800000 		jr	ra
 492              		.cfi_endproc
 493              	.LFE43:
 495              		.align	2
 496              		.globl	_Z10sem_signalP3Sem
 498              	_Z10sem_signalP3Sem:
 499              	.LFB44:
  88:src/syscall_c.cpp **** 
GAS LISTING /tmp/ccPejsg0.s 			page 11


  89:src/syscall_c.cpp **** int sem_signal(sem_t id) {
 500              		.loc 1 89 26 is_stmt 1
 501              		.cfi_startproc
 502              	.LVL23:
 503 01d0 130101FF 		addi	sp,sp,-16
 504              		.cfi_def_cfa_offset 16
 505 01d4 23348100 		sd	s0,8(sp)
 506              		.cfi_offset 8, -8
 507 01d8 13040101 		addi	s0,sp,16
 508              		.cfi_def_cfa 8, 0
  90:src/syscall_c.cpp ****     __asm__ volatile("mv a1, %[id]" : : [id] "r" (id));
 509              		.loc 1 90 5
 510              		.loc 1 90 55 is_stmt 0
 511              	#APP
 512              	# 90 "src/syscall_c.cpp" 1
  91              	    __asm__ volatile("li a0, 0x24");
 513              		mv a1, a0
 514              	# 0 "" 2
 515              		.loc 1 91 5 is_stmt 1
 516              		.loc 1 91 36 is_stmt 0
 517              	# 91 "src/syscall_c.cpp" 1
  92              	    __asm__ volatile("ecall");
 518              		li a0, 0x24
 519              	# 0 "" 2
 520              		.loc 1 92 5 is_stmt 1
 521              		.loc 1 92 30 is_stmt 0
 522              	# 92 "src/syscall_c.cpp" 1
  93              	    int retval;
 523              		ecall
 524              	# 0 "" 2
 525              		.loc 1 93 5 is_stmt 1
  94:src/syscall_c.cpp ****     __asm__ volatile("mv %[ret], a0" : [ret] "=r" (retval));
 526              		.loc 1 94 5
 527              		.loc 1 94 60 is_stmt 0
 528              	# 94 "src/syscall_c.cpp" 1
  95              	    return retval;
 529              		mv a0, a0
 530              	# 0 "" 2
 531              	.LVL24:
 532              		.loc 1 95 5 is_stmt 1
  96:src/syscall_c.cpp **** }
 533              		.loc 1 96 1 is_stmt 0
 534              	#NO_APP
 535 01ec 1B050500 		sext.w	a0,a0
 536 01f0 03348100 		ld	s0,8(sp)
 537              		.cfi_restore 8
 538              		.cfi_def_cfa 2, 16
 539 01f4 13010101 		addi	sp,sp,16
 540              		.cfi_def_cfa_offset 0
 541 01f8 67800000 		jr	ra
 542              		.cfi_endproc
 543              	.LFE44:
 545              		.align	2
 546              		.globl	_Z10time_sleepm
 548              	_Z10time_sleepm:
 549              	.LFB45:
  97:src/syscall_c.cpp **** 
GAS LISTING /tmp/ccPejsg0.s 			page 12


  98:src/syscall_c.cpp **** int time_sleep(time_t time) {
 550              		.loc 1 98 29 is_stmt 1
 551              		.cfi_startproc
 552              	.LVL25:
 553 01fc 130101FF 		addi	sp,sp,-16
 554              		.cfi_def_cfa_offset 16
 555 0200 23348100 		sd	s0,8(sp)
 556              		.cfi_offset 8, -8
 557 0204 13040101 		addi	s0,sp,16
 558              		.cfi_def_cfa 8, 0
  99:src/syscall_c.cpp ****     __asm__ volatile("mv a1, %[time]" : : [time] "r" (time));
 559              		.loc 1 99 5
 560              		.loc 1 99 61 is_stmt 0
 561              	#APP
 562              	# 99 "src/syscall_c.cpp" 1
 100              	    __asm__ volatile("li a0, 0x31");
 563              		mv a1, a0
 564              	# 0 "" 2
 565              		.loc 1 100 5 is_stmt 1
 566              		.loc 1 100 36 is_stmt 0
 567              	# 100 "src/syscall_c.cpp" 1
 101              	    __asm__ volatile("ecall");
 568              		li a0, 0x31
 569              	# 0 "" 2
 570              		.loc 1 101 5 is_stmt 1
 571              		.loc 1 101 30 is_stmt 0
 572              	# 101 "src/syscall_c.cpp" 1
 102              	    int retval;
 573              		ecall
 574              	# 0 "" 2
 575              		.loc 1 102 5 is_stmt 1
 103:src/syscall_c.cpp ****     __asm__ volatile("mv %[ret], a0" : [ret] "=r" (retval));
 576              		.loc 1 103 5
 577              		.loc 1 103 60 is_stmt 0
 578              	# 103 "src/syscall_c.cpp" 1
 104              	    return retval;
 579              		mv a0, a0
 580              	# 0 "" 2
 581              	.LVL26:
 582              		.loc 1 104 5 is_stmt 1
 105:src/syscall_c.cpp **** }
 583              		.loc 1 105 1 is_stmt 0
 584              	#NO_APP
 585 0218 1B050500 		sext.w	a0,a0
 586 021c 03348100 		ld	s0,8(sp)
 587              		.cfi_restore 8
 588              		.cfi_def_cfa 2, 16
 589 0220 13010101 		addi	sp,sp,16
 590              		.cfi_def_cfa_offset 0
 591 0224 67800000 		jr	ra
 592              		.cfi_endproc
 593              	.LFE45:
 595              		.align	2
 596              		.globl	_Z4getcv
 598              	_Z4getcv:
 599              	.LFB46:
 106:src/syscall_c.cpp **** 
GAS LISTING /tmp/ccPejsg0.s 			page 13


 107:src/syscall_c.cpp **** char getc() {
 600              		.loc 1 107 13 is_stmt 1
 601              		.cfi_startproc
 602 0228 130101FF 		addi	sp,sp,-16
 603              		.cfi_def_cfa_offset 16
 604 022c 23348100 		sd	s0,8(sp)
 605              		.cfi_offset 8, -8
 606 0230 13040101 		addi	s0,sp,16
 607              		.cfi_def_cfa 8, 0
 108:src/syscall_c.cpp ****     __asm__ volatile("li a0, 0x41");
 608              		.loc 1 108 5
 609              		.loc 1 108 36 is_stmt 0
 610              	#APP
 611              	# 108 "src/syscall_c.cpp" 1
 109              	    __asm__ volatile("ecall");
 612              		li a0, 0x41
 613              	# 0 "" 2
 614              		.loc 1 109 5 is_stmt 1
 615              		.loc 1 109 30 is_stmt 0
 616              	# 109 "src/syscall_c.cpp" 1
 110              	    char retval;
 617              		ecall
 618              	# 0 "" 2
 619              		.loc 1 110 5 is_stmt 1
 111:src/syscall_c.cpp ****     __asm__ volatile("mv %[ret], a0" : [ret] "=r" (retval));
 620              		.loc 1 111 5
 621              		.loc 1 111 60 is_stmt 0
 622              	# 111 "src/syscall_c.cpp" 1
 112              	    return retval;
 623              		mv a0, a0
 624              	# 0 "" 2
 625              	.LVL27:
 626              		.loc 1 112 5 is_stmt 1
 113:src/syscall_c.cpp **** }
 627              		.loc 1 113 1 is_stmt 0
 628              	#NO_APP
 629 0240 1375F50F 		andi	a0,a0,0xff
 630 0244 03348100 		ld	s0,8(sp)
 631              		.cfi_restore 8
 632              		.cfi_def_cfa 2, 16
 633 0248 13010101 		addi	sp,sp,16
 634              		.cfi_def_cfa_offset 0
 635 024c 67800000 		jr	ra
 636              		.cfi_endproc
 637              	.LFE46:
 639              		.align	2
 640              		.globl	_Z4putcc
 642              	_Z4putcc:
 643              	.LFB47:
 114:src/syscall_c.cpp **** 
 115:src/syscall_c.cpp **** void putc(char c) {
 644              		.loc 1 115 19 is_stmt 1
 645              		.cfi_startproc
 646              	.LVL28:
 647 0250 130101FF 		addi	sp,sp,-16
 648              		.cfi_def_cfa_offset 16
 649 0254 23348100 		sd	s0,8(sp)
GAS LISTING /tmp/ccPejsg0.s 			page 14


 650              		.cfi_offset 8, -8
 651 0258 13040101 		addi	s0,sp,16
 652              		.cfi_def_cfa 8, 0
 116:src/syscall_c.cpp ****     __asm__ volatile("mv a1, %[c]" : : [c] "r" (c));
 653              		.loc 1 116 5
 654              		.loc 1 116 52 is_stmt 0
 655              	#APP
 656              	# 116 "src/syscall_c.cpp" 1
 117              	    __asm__ volatile("li a0, 0x42");
 657              		mv a1, a0
 658              	# 0 "" 2
 659              		.loc 1 117 5 is_stmt 1
 660              		.loc 1 117 36 is_stmt 0
 661              	# 117 "src/syscall_c.cpp" 1
 118              	    __asm__ volatile("ecall");
 662              		li a0, 0x42
 663              	# 0 "" 2
 664              		.loc 1 118 5 is_stmt 1
 665              		.loc 1 118 30 is_stmt 0
 666              	# 118 "src/syscall_c.cpp" 1
 119              	}
 667              		ecall
 668              	# 0 "" 2
 669              		.loc 1 119 1
 670              	#NO_APP
 671 0268 03348100 		ld	s0,8(sp)
 672              		.cfi_restore 8
 673              		.cfi_def_cfa 2, 16
 674 026c 13010101 		addi	sp,sp,16
 675              		.cfi_def_cfa_offset 0
 676 0270 67800000 		jr	ra
 677              		.cfi_endproc
 678              	.LFE47:
 680              	.Letext0:
 681              		.file 2 "src/../h/../lib/hw.h"
 682              		.file 3 "src/../h/TCB.h"
 683              		.file 4 "src/../h/Sem.h"
 684              		.file 5 "src/../h/syscall_c.hpp"
GAS LISTING /tmp/ccPejsg0.s 			page 15


DEFINED SYMBOLS
                            *ABS*:0000000000000000 syscall_c.cpp
     /tmp/ccPejsg0.s:9      .text:0000000000000000 _Z9mem_allocm
     /tmp/ccPejsg0.s:13     .text:0000000000000000 .L0 
     /tmp/ccPejsg0.s:15     .text:0000000000000000 .L0 
     /tmp/ccPejsg0.s:16     .text:0000000000000004 .L0 
     /tmp/ccPejsg0.s:18     .text:0000000000000008 .L0 
     /tmp/ccPejsg0.s:20     .text:000000000000000c .L0 
     /tmp/ccPejsg0.s:22     .text:000000000000000c .L0 
   src/syscall_c.cpp:7      .text:000000000000000c .L0 
     /tmp/ccPejsg0.s:28     .text:0000000000000010 .L0 
   src/syscall_c.cpp:8      .text:0000000000000010 .L0 
     /tmp/ccPejsg0.s:33     .text:0000000000000014 .L0 
   src/syscall_c.cpp:9      .text:0000000000000014 .L0 
     /tmp/ccPejsg0.s:38     .text:0000000000000018 .L0 
     /tmp/ccPejsg0.s:39     .text:0000000000000018 .L0 
   src/syscall_c.cpp:11     .text:0000000000000018 .L0 
     /tmp/ccPejsg0.s:45     .text:000000000000001c .L0 
     /tmp/ccPejsg0.s:47     .text:000000000000001c .L0 
     /tmp/ccPejsg0.s:48     .text:0000000000000020 .L0 
     /tmp/ccPejsg0.s:49     .text:0000000000000020 .L0 
     /tmp/ccPejsg0.s:51     .text:0000000000000024 .L0 
     /tmp/ccPejsg0.s:53     .text:0000000000000028 .L0 
     /tmp/ccPejsg0.s:59     .text:0000000000000028 _Z8mem_freePv
     /tmp/ccPejsg0.s:62     .text:0000000000000028 .L0 
     /tmp/ccPejsg0.s:64     .text:0000000000000028 .L0 
     /tmp/ccPejsg0.s:65     .text:000000000000002c .L0 
     /tmp/ccPejsg0.s:67     .text:0000000000000030 .L0 
     /tmp/ccPejsg0.s:69     .text:0000000000000034 .L0 
     /tmp/ccPejsg0.s:71     .text:0000000000000034 .L0 
   src/syscall_c.cpp:16     .text:0000000000000034 .L0 
     /tmp/ccPejsg0.s:77     .text:0000000000000038 .L0 
   src/syscall_c.cpp:17     .text:0000000000000038 .L0 
     /tmp/ccPejsg0.s:82     .text:000000000000003c .L0 
   src/syscall_c.cpp:18     .text:000000000000003c .L0 
     /tmp/ccPejsg0.s:87     .text:0000000000000040 .L0 
     /tmp/ccPejsg0.s:88     .text:0000000000000040 .L0 
   src/syscall_c.cpp:20     .text:0000000000000040 .L0 
     /tmp/ccPejsg0.s:94     .text:0000000000000044 .L0 
     /tmp/ccPejsg0.s:96     .text:0000000000000044 .L0 
     /tmp/ccPejsg0.s:98     .text:000000000000004c .L0 
     /tmp/ccPejsg0.s:99     .text:000000000000004c .L0 
     /tmp/ccPejsg0.s:101    .text:0000000000000050 .L0 
     /tmp/ccPejsg0.s:103    .text:0000000000000054 .L0 
     /tmp/ccPejsg0.s:109    .text:0000000000000054 _Z13thread_createPP3TCBPFvPvES2_
     /tmp/ccPejsg0.s:112    .text:0000000000000054 .L0 
     /tmp/ccPejsg0.s:114    .text:0000000000000054 .L0 
     /tmp/ccPejsg0.s:115    .text:0000000000000058 .L0 
     /tmp/ccPejsg0.s:121    .text:000000000000006c .L0 
     /tmp/ccPejsg0.s:122    .text:000000000000006c .L0 
     /tmp/ccPejsg0.s:123    .text:000000000000006c .L0 
     /tmp/ccPejsg0.s:124    .text:000000000000006c .L0 
     /tmp/ccPejsg0.s:125    .text:000000000000006c .L0 
     /tmp/ccPejsg0.s:127    .text:0000000000000070 .L0 
     /tmp/ccPejsg0.s:133    .text:000000000000007c .L0 
     /tmp/ccPejsg0.s:134    .text:000000000000007c .L0 
     /tmp/ccPejsg0.s:135    .text:000000000000007c .L0 
GAS LISTING /tmp/ccPejsg0.s 			page 16


     /tmp/ccPejsg0.s:136    .text:000000000000007c .L0 
     /tmp/ccPejsg0.s:137    .text:000000000000007c .L0 
     /tmp/ccPejsg0.s:142    .text:0000000000000088 .L0 
     /tmp/ccPejsg0.s:144    .text:000000000000008c .L0 
     /tmp/ccPejsg0.s:145    .text:000000000000008c .L0 
     /tmp/ccPejsg0.s:150    .text:0000000000000098 .L0 
   src/syscall_c.cpp:31     .text:0000000000000098 .L0 
     /tmp/ccPejsg0.s:156    .text:000000000000009c .L0 
   src/syscall_c.cpp:32     .text:000000000000009c .L0 
     /tmp/ccPejsg0.s:161    .text:00000000000000a0 .L0 
   src/syscall_c.cpp:33     .text:00000000000000a0 .L0 
     /tmp/ccPejsg0.s:166    .text:00000000000000a4 .L0 
   src/syscall_c.cpp:34     .text:00000000000000a4 .L0 
     /tmp/ccPejsg0.s:171    .text:00000000000000a8 .L0 
   src/syscall_c.cpp:35     .text:00000000000000a8 .L0 
     /tmp/ccPejsg0.s:176    .text:00000000000000ac .L0 
   src/syscall_c.cpp:36     .text:00000000000000ac .L0 
     /tmp/ccPejsg0.s:181    .text:00000000000000b0 .L0 
     /tmp/ccPejsg0.s:182    .text:00000000000000b0 .L0 
   src/syscall_c.cpp:38     .text:00000000000000b0 .L0 
     /tmp/ccPejsg0.s:191    .text:00000000000000b8 .L0 
     /tmp/ccPejsg0.s:192    .text:00000000000000b8 .L0 
     /tmp/ccPejsg0.s:193    .text:00000000000000bc .L0 
     /tmp/ccPejsg0.s:194    .text:00000000000000bc .L0 
     /tmp/ccPejsg0.s:196    .text:00000000000000c0 .L0 
     /tmp/ccPejsg0.s:197    .text:00000000000000c0 .L0 
     /tmp/ccPejsg0.s:199    .text:00000000000000c4 .L0 
     /tmp/ccPejsg0.s:202    .text:00000000000000c8 .L0 
     /tmp/ccPejsg0.s:205    .text:00000000000000cc .L0 
     /tmp/ccPejsg0.s:208    .text:00000000000000d0 .L0 
     /tmp/ccPejsg0.s:212    .text:00000000000000d4 .L0 
     /tmp/ccPejsg0.s:214    .text:00000000000000d4 .L0 
     /tmp/ccPejsg0.s:217    .text:00000000000000dc .L0 
     /tmp/ccPejsg0.s:223    .text:00000000000000dc _Z11thread_exitv
     /tmp/ccPejsg0.s:226    .text:00000000000000dc .L0 
     /tmp/ccPejsg0.s:227    .text:00000000000000dc .L0 
     /tmp/ccPejsg0.s:228    .text:00000000000000e0 .L0 
     /tmp/ccPejsg0.s:230    .text:00000000000000e4 .L0 
     /tmp/ccPejsg0.s:232    .text:00000000000000e8 .L0 
     /tmp/ccPejsg0.s:234    .text:00000000000000e8 .L0 
   src/syscall_c.cpp:43     .text:00000000000000e8 .L0 
     /tmp/ccPejsg0.s:240    .text:00000000000000ec .L0 
   src/syscall_c.cpp:44     .text:00000000000000ec .L0 
     /tmp/ccPejsg0.s:245    .text:00000000000000f0 .L0 
     /tmp/ccPejsg0.s:246    .text:00000000000000f0 .L0 
   src/syscall_c.cpp:46     .text:00000000000000f0 .L0 
     /tmp/ccPejsg0.s:252    .text:00000000000000f4 .L0 
     /tmp/ccPejsg0.s:254    .text:00000000000000f4 .L0 
     /tmp/ccPejsg0.s:256    .text:00000000000000fc .L0 
     /tmp/ccPejsg0.s:257    .text:00000000000000fc .L0 
     /tmp/ccPejsg0.s:259    .text:0000000000000100 .L0 
     /tmp/ccPejsg0.s:261    .text:0000000000000104 .L0 
     /tmp/ccPejsg0.s:267    .text:0000000000000104 _Z15thread_dispatchv
     /tmp/ccPejsg0.s:270    .text:0000000000000104 .L0 
     /tmp/ccPejsg0.s:271    .text:0000000000000104 .L0 
     /tmp/ccPejsg0.s:272    .text:0000000000000108 .L0 
     /tmp/ccPejsg0.s:274    .text:000000000000010c .L0 
GAS LISTING /tmp/ccPejsg0.s 			page 17


     /tmp/ccPejsg0.s:276    .text:0000000000000110 .L0 
     /tmp/ccPejsg0.s:278    .text:0000000000000110 .L0 
   src/syscall_c.cpp:51     .text:0000000000000110 .L0 
     /tmp/ccPejsg0.s:284    .text:0000000000000114 .L0 
   src/syscall_c.cpp:52     .text:0000000000000114 .L0 
     /tmp/ccPejsg0.s:290    .text:0000000000000118 .L0 
     /tmp/ccPejsg0.s:291    .text:000000000000011c .L0 
     /tmp/ccPejsg0.s:292    .text:000000000000011c .L0 
     /tmp/ccPejsg0.s:294    .text:0000000000000120 .L0 
     /tmp/ccPejsg0.s:296    .text:0000000000000124 .L0 
     /tmp/ccPejsg0.s:302    .text:0000000000000124 _Z11thread_joinP3TCB
     /tmp/ccPejsg0.s:305    .text:0000000000000124 .L0 
     /tmp/ccPejsg0.s:307    .text:0000000000000124 .L0 
     /tmp/ccPejsg0.s:308    .text:0000000000000128 .L0 
     /tmp/ccPejsg0.s:310    .text:000000000000012c .L0 
     /tmp/ccPejsg0.s:312    .text:0000000000000130 .L0 
     /tmp/ccPejsg0.s:314    .text:0000000000000130 .L0 
   src/syscall_c.cpp:56     .text:0000000000000130 .L0 
     /tmp/ccPejsg0.s:320    .text:0000000000000134 .L0 
   src/syscall_c.cpp:57     .text:0000000000000134 .L0 
     /tmp/ccPejsg0.s:325    .text:0000000000000138 .L0 
   src/syscall_c.cpp:58     .text:0000000000000138 .L0 
     /tmp/ccPejsg0.s:331    .text:000000000000013c .L0 
     /tmp/ccPejsg0.s:332    .text:0000000000000140 .L0 
     /tmp/ccPejsg0.s:333    .text:0000000000000140 .L0 
     /tmp/ccPejsg0.s:335    .text:0000000000000144 .L0 
     /tmp/ccPejsg0.s:337    .text:0000000000000148 .L0 
     /tmp/ccPejsg0.s:343    .text:0000000000000148 _Z8sem_openPP3Semj
     /tmp/ccPejsg0.s:346    .text:0000000000000148 .L0 
     /tmp/ccPejsg0.s:348    .text:0000000000000148 .L0 
     /tmp/ccPejsg0.s:349    .text:000000000000014c .L0 
     /tmp/ccPejsg0.s:351    .text:0000000000000150 .L0 
     /tmp/ccPejsg0.s:353    .text:0000000000000154 .L0 
     /tmp/ccPejsg0.s:355    .text:0000000000000154 .L0 
   src/syscall_c.cpp:62     .text:0000000000000154 .L0 
     /tmp/ccPejsg0.s:361    .text:0000000000000158 .L0 
   src/syscall_c.cpp:63     .text:0000000000000158 .L0 
     /tmp/ccPejsg0.s:366    .text:000000000000015c .L0 
   src/syscall_c.cpp:64     .text:000000000000015c .L0 
     /tmp/ccPejsg0.s:371    .text:0000000000000160 .L0 
   src/syscall_c.cpp:65     .text:0000000000000160 .L0 
     /tmp/ccPejsg0.s:376    .text:0000000000000164 .L0 
     /tmp/ccPejsg0.s:377    .text:0000000000000164 .L0 
   src/syscall_c.cpp:67     .text:0000000000000164 .L0 
     /tmp/ccPejsg0.s:383    .text:0000000000000168 .L0 
     /tmp/ccPejsg0.s:385    .text:0000000000000168 .L0 
     /tmp/ccPejsg0.s:387    .text:0000000000000170 .L0 
     /tmp/ccPejsg0.s:388    .text:0000000000000170 .L0 
     /tmp/ccPejsg0.s:390    .text:0000000000000174 .L0 
     /tmp/ccPejsg0.s:392    .text:0000000000000178 .L0 
     /tmp/ccPejsg0.s:398    .text:0000000000000178 _Z9sem_closeP3Sem
     /tmp/ccPejsg0.s:401    .text:0000000000000178 .L0 
     /tmp/ccPejsg0.s:403    .text:0000000000000178 .L0 
     /tmp/ccPejsg0.s:404    .text:000000000000017c .L0 
     /tmp/ccPejsg0.s:406    .text:0000000000000180 .L0 
     /tmp/ccPejsg0.s:408    .text:0000000000000184 .L0 
     /tmp/ccPejsg0.s:410    .text:0000000000000184 .L0 
GAS LISTING /tmp/ccPejsg0.s 			page 18


   src/syscall_c.cpp:72     .text:0000000000000184 .L0 
     /tmp/ccPejsg0.s:416    .text:0000000000000188 .L0 
   src/syscall_c.cpp:73     .text:0000000000000188 .L0 
     /tmp/ccPejsg0.s:421    .text:000000000000018c .L0 
   src/syscall_c.cpp:74     .text:000000000000018c .L0 
     /tmp/ccPejsg0.s:426    .text:0000000000000190 .L0 
     /tmp/ccPejsg0.s:427    .text:0000000000000190 .L0 
   src/syscall_c.cpp:76     .text:0000000000000190 .L0 
     /tmp/ccPejsg0.s:433    .text:0000000000000194 .L0 
     /tmp/ccPejsg0.s:435    .text:0000000000000194 .L0 
     /tmp/ccPejsg0.s:437    .text:000000000000019c .L0 
     /tmp/ccPejsg0.s:438    .text:000000000000019c .L0 
     /tmp/ccPejsg0.s:440    .text:00000000000001a0 .L0 
     /tmp/ccPejsg0.s:442    .text:00000000000001a4 .L0 
     /tmp/ccPejsg0.s:448    .text:00000000000001a4 _Z8sem_waitP3Sem
     /tmp/ccPejsg0.s:451    .text:00000000000001a4 .L0 
     /tmp/ccPejsg0.s:453    .text:00000000000001a4 .L0 
     /tmp/ccPejsg0.s:454    .text:00000000000001a8 .L0 
     /tmp/ccPejsg0.s:456    .text:00000000000001ac .L0 
     /tmp/ccPejsg0.s:458    .text:00000000000001b0 .L0 
     /tmp/ccPejsg0.s:460    .text:00000000000001b0 .L0 
   src/syscall_c.cpp:81     .text:00000000000001b0 .L0 
     /tmp/ccPejsg0.s:466    .text:00000000000001b4 .L0 
   src/syscall_c.cpp:82     .text:00000000000001b4 .L0 
     /tmp/ccPejsg0.s:471    .text:00000000000001b8 .L0 
   src/syscall_c.cpp:83     .text:00000000000001b8 .L0 
     /tmp/ccPejsg0.s:476    .text:00000000000001bc .L0 
     /tmp/ccPejsg0.s:477    .text:00000000000001bc .L0 
   src/syscall_c.cpp:85     .text:00000000000001bc .L0 
     /tmp/ccPejsg0.s:483    .text:00000000000001c0 .L0 
     /tmp/ccPejsg0.s:485    .text:00000000000001c0 .L0 
     /tmp/ccPejsg0.s:487    .text:00000000000001c8 .L0 
     /tmp/ccPejsg0.s:488    .text:00000000000001c8 .L0 
     /tmp/ccPejsg0.s:490    .text:00000000000001cc .L0 
     /tmp/ccPejsg0.s:492    .text:00000000000001d0 .L0 
     /tmp/ccPejsg0.s:498    .text:00000000000001d0 _Z10sem_signalP3Sem
     /tmp/ccPejsg0.s:501    .text:00000000000001d0 .L0 
     /tmp/ccPejsg0.s:503    .text:00000000000001d0 .L0 
     /tmp/ccPejsg0.s:504    .text:00000000000001d4 .L0 
     /tmp/ccPejsg0.s:506    .text:00000000000001d8 .L0 
     /tmp/ccPejsg0.s:508    .text:00000000000001dc .L0 
     /tmp/ccPejsg0.s:510    .text:00000000000001dc .L0 
   src/syscall_c.cpp:90     .text:00000000000001dc .L0 
     /tmp/ccPejsg0.s:516    .text:00000000000001e0 .L0 
   src/syscall_c.cpp:91     .text:00000000000001e0 .L0 
     /tmp/ccPejsg0.s:521    .text:00000000000001e4 .L0 
   src/syscall_c.cpp:92     .text:00000000000001e4 .L0 
     /tmp/ccPejsg0.s:526    .text:00000000000001e8 .L0 
     /tmp/ccPejsg0.s:527    .text:00000000000001e8 .L0 
   src/syscall_c.cpp:94     .text:00000000000001e8 .L0 
     /tmp/ccPejsg0.s:533    .text:00000000000001ec .L0 
     /tmp/ccPejsg0.s:535    .text:00000000000001ec .L0 
     /tmp/ccPejsg0.s:537    .text:00000000000001f4 .L0 
     /tmp/ccPejsg0.s:538    .text:00000000000001f4 .L0 
     /tmp/ccPejsg0.s:540    .text:00000000000001f8 .L0 
     /tmp/ccPejsg0.s:542    .text:00000000000001fc .L0 
     /tmp/ccPejsg0.s:548    .text:00000000000001fc _Z10time_sleepm
GAS LISTING /tmp/ccPejsg0.s 			page 19


     /tmp/ccPejsg0.s:551    .text:00000000000001fc .L0 
     /tmp/ccPejsg0.s:553    .text:00000000000001fc .L0 
     /tmp/ccPejsg0.s:554    .text:0000000000000200 .L0 
     /tmp/ccPejsg0.s:556    .text:0000000000000204 .L0 
     /tmp/ccPejsg0.s:558    .text:0000000000000208 .L0 
     /tmp/ccPejsg0.s:560    .text:0000000000000208 .L0 
   src/syscall_c.cpp:99     .text:0000000000000208 .L0 
     /tmp/ccPejsg0.s:566    .text:000000000000020c .L0 
   src/syscall_c.cpp:100    .text:000000000000020c .L0 
     /tmp/ccPejsg0.s:571    .text:0000000000000210 .L0 
   src/syscall_c.cpp:101    .text:0000000000000210 .L0 
     /tmp/ccPejsg0.s:576    .text:0000000000000214 .L0 
     /tmp/ccPejsg0.s:577    .text:0000000000000214 .L0 
   src/syscall_c.cpp:103    .text:0000000000000214 .L0 
     /tmp/ccPejsg0.s:583    .text:0000000000000218 .L0 
     /tmp/ccPejsg0.s:585    .text:0000000000000218 .L0 
     /tmp/ccPejsg0.s:587    .text:0000000000000220 .L0 
     /tmp/ccPejsg0.s:588    .text:0000000000000220 .L0 
     /tmp/ccPejsg0.s:590    .text:0000000000000224 .L0 
     /tmp/ccPejsg0.s:592    .text:0000000000000228 .L0 
     /tmp/ccPejsg0.s:598    .text:0000000000000228 _Z4getcv
     /tmp/ccPejsg0.s:601    .text:0000000000000228 .L0 
     /tmp/ccPejsg0.s:602    .text:0000000000000228 .L0 
     /tmp/ccPejsg0.s:603    .text:000000000000022c .L0 
     /tmp/ccPejsg0.s:605    .text:0000000000000230 .L0 
     /tmp/ccPejsg0.s:607    .text:0000000000000234 .L0 
     /tmp/ccPejsg0.s:609    .text:0000000000000234 .L0 
   src/syscall_c.cpp:108    .text:0000000000000234 .L0 
     /tmp/ccPejsg0.s:615    .text:0000000000000238 .L0 
   src/syscall_c.cpp:109    .text:0000000000000238 .L0 
     /tmp/ccPejsg0.s:620    .text:000000000000023c .L0 
     /tmp/ccPejsg0.s:621    .text:000000000000023c .L0 
   src/syscall_c.cpp:111    .text:000000000000023c .L0 
     /tmp/ccPejsg0.s:627    .text:0000000000000240 .L0 
     /tmp/ccPejsg0.s:629    .text:0000000000000240 .L0 
     /tmp/ccPejsg0.s:631    .text:0000000000000248 .L0 
     /tmp/ccPejsg0.s:632    .text:0000000000000248 .L0 
     /tmp/ccPejsg0.s:634    .text:000000000000024c .L0 
     /tmp/ccPejsg0.s:636    .text:0000000000000250 .L0 
     /tmp/ccPejsg0.s:642    .text:0000000000000250 _Z4putcc
     /tmp/ccPejsg0.s:645    .text:0000000000000250 .L0 
     /tmp/ccPejsg0.s:647    .text:0000000000000250 .L0 
     /tmp/ccPejsg0.s:648    .text:0000000000000254 .L0 
     /tmp/ccPejsg0.s:650    .text:0000000000000258 .L0 
     /tmp/ccPejsg0.s:652    .text:000000000000025c .L0 
     /tmp/ccPejsg0.s:654    .text:000000000000025c .L0 
   src/syscall_c.cpp:116    .text:000000000000025c .L0 
     /tmp/ccPejsg0.s:660    .text:0000000000000260 .L0 
   src/syscall_c.cpp:117    .text:0000000000000260 .L0 
     /tmp/ccPejsg0.s:665    .text:0000000000000264 .L0 
   src/syscall_c.cpp:118    .text:0000000000000264 .L0 
     /tmp/ccPejsg0.s:671    .text:0000000000000268 .L0 
     /tmp/ccPejsg0.s:672    .text:000000000000026c .L0 
     /tmp/ccPejsg0.s:673    .text:000000000000026c .L0 
     /tmp/ccPejsg0.s:675    .text:0000000000000270 .L0 
     /tmp/ccPejsg0.s:677    .text:0000000000000274 .L0 
     /tmp/ccPejsg0.s:685    .text:0000000000000274 .L0 
GAS LISTING /tmp/ccPejsg0.s 			page 20


     /tmp/ccPejsg0.s:211    .text:00000000000000d4 .L7
     /tmp/ccPejsg0.s:190    .text:00000000000000b8 .L6
     /tmp/ccPejsg0.s:1863   .debug_abbrev:0000000000000000 .Ldebug_abbrev0
     /tmp/ccPejsg0.s:3189   .debug_str:0000000000000630 .LASF128
     /tmp/ccPejsg0.s:3087   .debug_str:000000000000037c .LASF129
     /tmp/ccPejsg0.s:3033   .debug_str:000000000000021c .LASF130
     /tmp/ccPejsg0.s:5      .text:0000000000000000 .Ltext0
     /tmp/ccPejsg0.s:680    .text:0000000000000274 .Letext0
     /tmp/ccPejsg0.s:2953   .debug_line:0000000000000000 .Ldebug_line0
     /tmp/ccPejsg0.s:3047   .debug_str:0000000000000275 .LASF0
     /tmp/ccPejsg0.s:3069   .debug_str:0000000000000303 .LASF1
     /tmp/ccPejsg0.s:3139   .debug_str:00000000000004f9 .LASF2
     /tmp/ccPejsg0.s:3145   .debug_str:0000000000000528 .LASF4
     /tmp/ccPejsg0.s:3053   .debug_str:0000000000000298 .LASF3
     /tmp/ccPejsg0.s:2967   .debug_str:000000000000005d .LASF5
     /tmp/ccPejsg0.s:3121   .debug_str:0000000000000476 .LASF6
     /tmp/ccPejsg0.s:3111   .debug_str:000000000000042c .LASF7
     /tmp/ccPejsg0.s:3059   .debug_str:00000000000002c6 .LASF8
     /tmp/ccPejsg0.s:3027   .debug_str:00000000000001df .LASF9
     /tmp/ccPejsg0.s:3037   .debug_str:000000000000023f .LASF10
     /tmp/ccPejsg0.s:2987   .debug_str:00000000000000d3 .LASF11
     /tmp/ccPejsg0.s:3021   .debug_str:000000000000019d .LASF12
     /tmp/ccPejsg0.s:2997   .debug_str:0000000000000110 .LASF13
     /tmp/ccPejsg0.s:2985   .debug_str:00000000000000c3 .LASF14
     /tmp/ccPejsg0.s:3169   .debug_str:00000000000005bf .LASF15
     /tmp/ccPejsg0.s:3015   .debug_str:0000000000000170 .LASF16
     /tmp/ccPejsg0.s:3159   .debug_str:0000000000000575 .LASF17
     /tmp/ccPejsg0.s:3079   .debug_str:0000000000000355 .LASF18
     /tmp/ccPejsg0.s:3193   .debug_str:0000000000000702 .LASF131
     /tmp/ccPejsg0.s:2977   .debug_str:000000000000009a .LASF19
     /tmp/ccPejsg0.s:2983   .debug_str:00000000000000bd .LASF20
     /tmp/ccPejsg0.s:2955   .debug_str:0000000000000000 .LASF21
     /tmp/ccPejsg0.s:2991   .debug_str:00000000000000e7 .LASF22
     /tmp/ccPejsg0.s:3035   .debug_str:000000000000023a .LASF23
     /tmp/ccPejsg0.s:3175   .debug_str:00000000000005db .LASF24
     /tmp/ccPejsg0.s:3005   .debug_str:000000000000014a .LASF25
     /tmp/ccPejsg0.s:3063   .debug_str:00000000000002eb .LASF26
     /tmp/ccPejsg0.s:2989   .debug_str:00000000000000e2 .LASF27
     /tmp/ccPejsg0.s:3227   .debug_str:00000000000007d7 .LASF29
     /tmp/ccPejsg0.s:3113   .debug_str:000000000000043f .LASF33
     /tmp/ccPejsg0.s:2961   .debug_str:0000000000000019 .LASF32
     /tmp/ccPejsg0.s:3061   .debug_str:00000000000002d9 .LASF68
     /tmp/ccPejsg0.s:3147   .debug_str:000000000000052f .LASF28
     /tmp/ccPejsg0.s:2965   .debug_str:0000000000000051 .LASF30
     /tmp/ccPejsg0.s:3109   .debug_str:0000000000000420 .LASF31
     /tmp/ccPejsg0.s:3103   .debug_str:00000000000003fc .LASF34
     /tmp/ccPejsg0.s:3225   .debug_str:00000000000007c0 .LASF73
     /tmp/ccPejsg0.s:3107   .debug_str:000000000000041b .LASF132
     /tmp/ccPejsg0.s:3211   .debug_str:000000000000076f .LASF35
     /tmp/ccPejsg0.s:3125   .debug_str:000000000000048a .LASF36
     /tmp/ccPejsg0.s:3153   .debug_str:0000000000000554 .LASF37
     /tmp/ccPejsg0.s:3181   .debug_str:00000000000005f3 .LASF38
     /tmp/ccPejsg0.s:3183   .debug_str:0000000000000610 .LASF39
     /tmp/ccPejsg0.s:3023   .debug_str:00000000000001ac .LASF40
     /tmp/ccPejsg0.s:3187   .debug_str:0000000000000628 .LASF133
     /tmp/ccPejsg0.s:2959   .debug_str:0000000000000014 .LASF41
     /tmp/ccPejsg0.s:3223   .debug_str:00000000000007ba .LASF42
GAS LISTING /tmp/ccPejsg0.s 			page 21


     /tmp/ccPejsg0.s:3199   .debug_str:000000000000071f .LASF43
     /tmp/ccPejsg0.s:3195   .debug_str:0000000000000708 .LASF44
     /tmp/ccPejsg0.s:3123   .debug_str:000000000000047d .LASF45
     /tmp/ccPejsg0.s:3013   .debug_str:000000000000016a .LASF46
     /tmp/ccPejsg0.s:3163   .debug_str:000000000000059c .LASF47
     /tmp/ccPejsg0.s:2975   .debug_str:0000000000000089 .LASF48
     /tmp/ccPejsg0.s:3177   .debug_str:00000000000005e3 .LASF49
     /tmp/ccPejsg0.s:3095   .debug_str:00000000000003bf .LASF50
     /tmp/ccPejsg0.s:3141   .debug_str:0000000000000507 .LASF51
     /tmp/ccPejsg0.s:3213   .debug_str:000000000000077b .LASF52
     /tmp/ccPejsg0.s:3071   .debug_str:0000000000000316 .LASF53
     /tmp/ccPejsg0.s:3203   .debug_str:000000000000072c .LASF54
     /tmp/ccPejsg0.s:3007   .debug_str:000000000000014f .LASF55
     /tmp/ccPejsg0.s:3143   .debug_str:0000000000000510 .LASF56
     /tmp/ccPejsg0.s:3197   .debug_str:0000000000000712 .LASF57
     /tmp/ccPejsg0.s:3089   .debug_str:000000000000038e .LASF58
     /tmp/ccPejsg0.s:2995   .debug_str:0000000000000103 .LASF59
     /tmp/ccPejsg0.s:3207   .debug_str:000000000000074e .LASF60
     /tmp/ccPejsg0.s:3167   .debug_str:00000000000005b2 .LASF61
     /tmp/ccPejsg0.s:3025   .debug_str:00000000000001bd .LASF62
     /tmp/ccPejsg0.s:3009   .debug_str:000000000000015c .LASF63
     /tmp/ccPejsg0.s:2993   .debug_str:00000000000000f0 .LASF65
     /tmp/ccPejsg0.s:2973   .debug_str:000000000000007e .LASF89
     /tmp/ccPejsg0.s:2999   .debug_str:0000000000000120 .LASF90
     /tmp/ccPejsg0.s:3155   .debug_str:0000000000000566 .LASF134
     /tmp/ccPejsg0.s:3055   .debug_str:00000000000002aa .LASF135
     /tmp/ccPejsg0.s:2979   .debug_str:00000000000000a3 .LASF64
     /tmp/ccPejsg0.s:3073   .debug_str:0000000000000323 .LASF66
     /tmp/ccPejsg0.s:3003   .debug_str:000000000000013c .LASF67
     /tmp/ccPejsg0.s:2963   .debug_str:0000000000000029 .LASF69
     /tmp/ccPejsg0.s:3117   .debug_str:0000000000000455 .LASF70
     /tmp/ccPejsg0.s:3161   .debug_str:000000000000058b .LASF71
     /tmp/ccPejsg0.s:3135   .debug_str:00000000000004dc .LASF72
     /tmp/ccPejsg0.s:2981   .debug_str:00000000000000b1 .LASF74
     /tmp/ccPejsg0.s:3075   .debug_str:000000000000033c .LASF75
     /tmp/ccPejsg0.s:2957   .debug_str:0000000000000008 .LASF76
     /tmp/ccPejsg0.s:3011   .debug_str:0000000000000165 .LASF77
     /tmp/ccPejsg0.s:3093   .debug_str:00000000000003b0 .LASF78
     /tmp/ccPejsg0.s:3173   .debug_str:00000000000005d4 .LASF79
     /tmp/ccPejsg0.s:3165   .debug_str:00000000000005a1 .LASF80
     /tmp/ccPejsg0.s:3045   .debug_str:000000000000026f .LASF81
     /tmp/ccPejsg0.s:3019   .debug_str:000000000000018d .LASF82
     /tmp/ccPejsg0.s:3221   .debug_str:00000000000007b2 .LASF83
     /tmp/ccPejsg0.s:3149   .debug_str:0000000000000534 .LASF84
     /tmp/ccPejsg0.s:3229   .debug_str:00000000000007e4 .LASF85
     /tmp/ccPejsg0.s:3151   .debug_str:0000000000000546 .LASF136
     /tmp/ccPejsg0.s:3157   .debug_str:000000000000056b .LASF86
     /tmp/ccPejsg0.s:3077   .debug_str:0000000000000341 .LASF87
     /tmp/ccPejsg0.s:3029   .debug_str:00000000000001ef .LASF88
     /tmp/ccPejsg0.s:3057   .debug_str:00000000000002b9 .LASF91
     /tmp/ccPejsg0.s:3097   .debug_str:00000000000003d6 .LASF92
     /tmp/ccPejsg0.s:3179   .debug_str:00000000000005ee .LASF93
     /tmp/ccPejsg0.s:3209   .debug_str:0000000000000766 .LASF94
     /tmp/ccPejsg0.s:3217   .debug_str:000000000000079e .LASF95
     /tmp/ccPejsg0.s:3085   .debug_str:0000000000000377 .LASF112
     /tmp/ccPejsg0.s:3171   .debug_str:00000000000005cb .LASF114
     /tmp/ccPejsg0.s:643    .text:0000000000000250 .LFB47
GAS LISTING /tmp/ccPejsg0.s 			page 22


     /tmp/ccPejsg0.s:678    .text:0000000000000274 .LFE47
     /tmp/ccPejsg0.s:3049   .debug_str:0000000000000282 .LASF97
     /tmp/ccPejsg0.s:3205   .debug_str:0000000000000745 .LASF99
     /tmp/ccPejsg0.s:599    .text:0000000000000228 .LFB46
     /tmp/ccPejsg0.s:637    .text:0000000000000250 .LFE46
     /tmp/ccPejsg0.s:3017   .debug_str:0000000000000186 .LASF96
     /tmp/ccPejsg0.s:3137   .debug_str:00000000000004ee .LASF98
     /tmp/ccPejsg0.s:3119   .debug_str:0000000000000466 .LASF100
     /tmp/ccPejsg0.s:549    .text:00000000000001fc .LFB45
     /tmp/ccPejsg0.s:593    .text:0000000000000228 .LFE45
     /tmp/ccPejsg0.s:3115   .debug_str:0000000000000450 .LASF101
     /tmp/ccPejsg0.s:2695   .debug_loc:0000000000000000 .LLST13
     /tmp/ccPejsg0.s:3041   .debug_str:000000000000025b .LASF102
     /tmp/ccPejsg0.s:3133   .debug_str:00000000000004c8 .LASF103
     /tmp/ccPejsg0.s:499    .text:00000000000001d0 .LFB44
     /tmp/ccPejsg0.s:543    .text:00000000000001fc .LFE44
     /tmp/ccPejsg0.s:2709   .debug_loc:0000000000000039 .LLST12
     /tmp/ccPejsg0.s:3231   .debug_str:00000000000007f6 .LASF104
     /tmp/ccPejsg0.s:3081   .debug_str:000000000000035a .LASF105
     /tmp/ccPejsg0.s:449    .text:00000000000001a4 .LFB43
     /tmp/ccPejsg0.s:493    .text:00000000000001d0 .LFE43
     /tmp/ccPejsg0.s:2723   .debug_loc:0000000000000072 .LLST11
     /tmp/ccPejsg0.s:3127   .debug_str:00000000000004a5 .LASF106
     /tmp/ccPejsg0.s:3105   .debug_str:0000000000000409 .LASF107
     /tmp/ccPejsg0.s:399    .text:0000000000000178 .LFB42
     /tmp/ccPejsg0.s:443    .text:00000000000001a4 .LFE42
     /tmp/ccPejsg0.s:3215   .debug_str:0000000000000797 .LASF108
     /tmp/ccPejsg0.s:2737   .debug_loc:00000000000000ab .LLST10
     /tmp/ccPejsg0.s:3131   .debug_str:00000000000004bf .LASF109
     /tmp/ccPejsg0.s:3185   .debug_str:0000000000000615 .LASF110
     /tmp/ccPejsg0.s:344    .text:0000000000000148 .LFB41
     /tmp/ccPejsg0.s:393    .text:0000000000000178 .LFE41
     /tmp/ccPejsg0.s:2751   .debug_loc:00000000000000e4 .LLST9
     /tmp/ccPejsg0.s:2971   .debug_str:0000000000000079 .LASF111
     /tmp/ccPejsg0.s:3099   .debug_str:00000000000003db .LASF113
     /tmp/ccPejsg0.s:3101   .debug_str:00000000000003e7 .LASF115
     /tmp/ccPejsg0.s:303    .text:0000000000000124 .LFB40
     /tmp/ccPejsg0.s:338    .text:0000000000000148 .LFE40
     /tmp/ccPejsg0.s:3129   .debug_str:00000000000004af .LASF137
     /tmp/ccPejsg0.s:2969   .debug_str:0000000000000064 .LASF138
     /tmp/ccPejsg0.s:268    .text:0000000000000104 .LFB39
     /tmp/ccPejsg0.s:297    .text:0000000000000124 .LFE39
     /tmp/ccPejsg0.s:3083   .debug_str:000000000000036b .LASF116
     /tmp/ccPejsg0.s:3051   .debug_str:0000000000000287 .LASF117
     /tmp/ccPejsg0.s:224    .text:00000000000000dc .LFB38
     /tmp/ccPejsg0.s:262    .text:0000000000000104 .LFE38
     /tmp/ccPejsg0.s:3191   .debug_str:00000000000006f4 .LASF118
     /tmp/ccPejsg0.s:3031   .debug_str:00000000000001fb .LASF119
     /tmp/ccPejsg0.s:110    .text:0000000000000054 .LFB37
     /tmp/ccPejsg0.s:218    .text:00000000000000dc .LFE37
     /tmp/ccPejsg0.s:2765   .debug_loc:000000000000011d .LLST2
     /tmp/ccPejsg0.s:3065   .debug_str:00000000000002f0 .LASF120
     /tmp/ccPejsg0.s:2787   .debug_loc:000000000000017c .LLST3
     /tmp/ccPejsg0.s:2809   .debug_loc:00000000000001db .LLST4
     /tmp/ccPejsg0.s:3001   .debug_str:0000000000000137 .LASF121
     /tmp/ccPejsg0.s:2831   .debug_loc:000000000000023a .LLST5
     /tmp/ccPejsg0.s:2853   .debug_loc:0000000000000299 .LLST6
GAS LISTING /tmp/ccPejsg0.s 			page 23


     /tmp/ccPejsg0.s:3201   .debug_str:0000000000000727 .LASF122
     /tmp/ccPejsg0.s:2875   .debug_loc:00000000000002f8 .LLST7
     /tmp/ccPejsg0.s:2897   .debug_loc:0000000000000357 .LLST8
     /tmp/ccPejsg0.s:140    .text:0000000000000088 .LVL7
     /tmp/ccPejsg0.s:3043   .debug_str:0000000000000266 .LASF123
     /tmp/ccPejsg0.s:3219   .debug_str:00000000000007a4 .LASF124
     /tmp/ccPejsg0.s:60     .text:0000000000000028 .LFB36
     /tmp/ccPejsg0.s:104    .text:0000000000000054 .LFE36
     /tmp/ccPejsg0.s:2912   .debug_loc:00000000000003a0 .LLST1
     /tmp/ccPejsg0.s:3091   .debug_str:00000000000003a6 .LASF125
     /tmp/ccPejsg0.s:3039   .debug_str:000000000000024d .LASF126
     /tmp/ccPejsg0.s:10     .text:0000000000000000 .LFB35
     /tmp/ccPejsg0.s:54     .text:0000000000000028 .LFE35
     /tmp/ccPejsg0.s:3067   .debug_str:00000000000002fe .LASF127
     /tmp/ccPejsg0.s:2926   .debug_loc:00000000000003d9 .LLST0
     /tmp/ccPejsg0.s:552    .text:00000000000001fc .LVL25
     /tmp/ccPejsg0.s:581    .text:0000000000000218 .LVL26
     /tmp/ccPejsg0.s:502    .text:00000000000001d0 .LVL23
     /tmp/ccPejsg0.s:531    .text:00000000000001ec .LVL24
     /tmp/ccPejsg0.s:452    .text:00000000000001a4 .LVL21
     /tmp/ccPejsg0.s:481    .text:00000000000001c0 .LVL22
     /tmp/ccPejsg0.s:402    .text:0000000000000178 .LVL19
     /tmp/ccPejsg0.s:431    .text:0000000000000194 .LVL20
     /tmp/ccPejsg0.s:347    .text:0000000000000148 .LVL17
     /tmp/ccPejsg0.s:381    .text:0000000000000168 .LVL18
     /tmp/ccPejsg0.s:113    .text:0000000000000054 .LVL4
     /tmp/ccPejsg0.s:138    .text:0000000000000080 .LVL6
     /tmp/ccPejsg0.s:200    .text:00000000000000c4 .LVL10
     /tmp/ccPejsg0.s:210    .text:00000000000000d4 .LVL13
     /tmp/ccPejsg0.s:203    .text:00000000000000c8 .LVL11
     /tmp/ccPejsg0.s:206    .text:00000000000000cc .LVL12
     /tmp/ccPejsg0.s:132    .text:000000000000007c .LVL5
     /tmp/ccPejsg0.s:148    .text:0000000000000098 .LVL8
     /tmp/ccPejsg0.s:188    .text:00000000000000b8 .LVL9
     /tmp/ccPejsg0.s:215    .text:00000000000000d8 .LVL14
     /tmp/ccPejsg0.s:63     .text:0000000000000028 .LVL2
     /tmp/ccPejsg0.s:92     .text:0000000000000044 .LVL3
     /tmp/ccPejsg0.s:14     .text:0000000000000000 .LVL0
     /tmp/ccPejsg0.s:43     .text:000000000000001c .LVL1
     /tmp/ccPejsg0.s:686    .debug_info:0000000000000000 .Ldebug_info0

NO UNDEFINED SYMBOLS
