GAS LISTING /tmp/ccXhxw6L.s 			page 1


   1              		.file	"syscall_cpp.cpp"
   2              		.option pic
   3              		.option norelax
   4              		.text
   5              	.Ltext0:
   6              		.section	.text._ZN6Thread3runEv,"axG",@progbits,_ZN6Thread3runEv,comdat
   7              		.align	2
   8              		.weak	_ZN6Thread3runEv
  10              	_ZN6Thread3runEv:
  11              	.LFB38:
  12              		.file 1 "src/../h/syscall_cpp.hpp"
   1:src/../h/syscall_cpp.hpp **** #ifndef _syscall_cpp
   2:src/../h/syscall_cpp.hpp **** #define _syscall_cpp
   3:src/../h/syscall_cpp.hpp **** 
   4:src/../h/syscall_cpp.hpp **** #include "syscall_c.hpp"
   5:src/../h/syscall_cpp.hpp **** 
   6:src/../h/syscall_cpp.hpp **** void* operator new (size_t size);
   7:src/../h/syscall_cpp.hpp **** void operator delete (void* ptr);
   8:src/../h/syscall_cpp.hpp **** 
   9:src/../h/syscall_cpp.hpp **** class Thread {
  10:src/../h/syscall_cpp.hpp **** public:
  11:src/../h/syscall_cpp.hpp ****     Thread (void (*body)(void*), void* arg) : body(body), arg(arg) {}
  12:src/../h/syscall_cpp.hpp ****     virtual ~Thread ();
  13:src/../h/syscall_cpp.hpp ****     int start ();
  14:src/../h/syscall_cpp.hpp ****     void join();
  15:src/../h/syscall_cpp.hpp ****     static void dispatch ();
  16:src/../h/syscall_cpp.hpp ****     static int sleep (time_t);
  17:src/../h/syscall_cpp.hpp **** protected:
  18:src/../h/syscall_cpp.hpp ****     Thread ();
  19:src/../h/syscall_cpp.hpp ****     static void wrapper(void*);
  20:src/../h/syscall_cpp.hpp ****     virtual void run () {}
  13              		.loc 1 20 18
  14              		.cfi_startproc
  15              	.LVL0:
  16 0000 130101FF 		addi	sp,sp,-16
  17              		.cfi_def_cfa_offset 16
  18 0004 23348100 		sd	s0,8(sp)
  19              		.cfi_offset 8, -8
  20 0008 13040101 		addi	s0,sp,16
  21              		.cfi_def_cfa 8, 0
  22              		.loc 1 20 26 is_stmt 0
  23 000c 03348100 		ld	s0,8(sp)
  24              		.cfi_restore 8
  25              		.cfi_def_cfa 2, 16
  26 0010 13010101 		addi	sp,sp,16
  27              		.cfi_def_cfa_offset 0
  28 0014 67800000 		jr	ra
  29              		.cfi_endproc
  30              	.LFE38:
  32              		.section	.text._ZN14PeriodicThread18periodicActivationEv,"axG",@progbits,_ZN14PeriodicThread18peri
  33              		.align	2
  34              		.weak	_ZN14PeriodicThread18periodicActivationEv
  36              	_ZN14PeriodicThread18periodicActivationEv:
  37              	.LFB42:
  21:src/../h/syscall_cpp.hpp **** private:
  22:src/../h/syscall_cpp.hpp ****     thread_t myHandle;
  23:src/../h/syscall_cpp.hpp ****     void (*body)(void*); void* arg;
GAS LISTING /tmp/ccXhxw6L.s 			page 2


  24:src/../h/syscall_cpp.hpp **** };
  25:src/../h/syscall_cpp.hpp **** class Semaphore {
  26:src/../h/syscall_cpp.hpp **** public:
  27:src/../h/syscall_cpp.hpp ****     Semaphore (unsigned init = 1);
  28:src/../h/syscall_cpp.hpp ****     virtual ~Semaphore ();
  29:src/../h/syscall_cpp.hpp ****     int wait ();
  30:src/../h/syscall_cpp.hpp ****     int signal ();
  31:src/../h/syscall_cpp.hpp **** private:
  32:src/../h/syscall_cpp.hpp ****     sem_t myHandle;
  33:src/../h/syscall_cpp.hpp **** };
  34:src/../h/syscall_cpp.hpp **** class PeriodicThread : public Thread {
  35:src/../h/syscall_cpp.hpp **** public:
  36:src/../h/syscall_cpp.hpp ****     void terminate ();
  37:src/../h/syscall_cpp.hpp **** protected:
  38:src/../h/syscall_cpp.hpp ****     PeriodicThread (time_t period) : period(period) {}
  39:src/../h/syscall_cpp.hpp ****     virtual void periodicActivation () {}
  38              		.loc 1 39 18 is_stmt 1
  39              		.cfi_startproc
  40              	.LVL1:
  41 0000 130101FF 		addi	sp,sp,-16
  42              		.cfi_def_cfa_offset 16
  43 0004 23348100 		sd	s0,8(sp)
  44              		.cfi_offset 8, -8
  45 0008 13040101 		addi	s0,sp,16
  46              		.cfi_def_cfa 8, 0
  47              		.loc 1 39 41 is_stmt 0
  48 000c 03348100 		ld	s0,8(sp)
  49              		.cfi_restore 8
  50              		.cfi_def_cfa 2, 16
  51 0010 13010101 		addi	sp,sp,16
  52              		.cfi_def_cfa_offset 0
  53 0014 67800000 		jr	ra
  54              		.cfi_endproc
  55              	.LFE42:
  57              		.text
  58              		.align	2
  59              		.globl	_ZN6Thread7wrapperEPv
  61              	_ZN6Thread7wrapperEPv:
  62              	.LFB50:
  63              		.file 2 "src/syscall_cpp.cpp"
   1:src/syscall_cpp.cpp **** //
   2:src/syscall_cpp.cpp **** // Created by os on 7/4/23.
   3:src/syscall_cpp.cpp **** //
   4:src/syscall_cpp.cpp **** #include "../h/syscall_cpp.hpp"
   5:src/syscall_cpp.cpp **** 
   6:src/syscall_cpp.cpp **** void *operator new(size_t size) {
   7:src/syscall_cpp.cpp ****     return mem_alloc(size);
   8:src/syscall_cpp.cpp **** }
   9:src/syscall_cpp.cpp **** 
  10:src/syscall_cpp.cpp **** void operator delete(void *ptr) {
  11:src/syscall_cpp.cpp ****     mem_free(ptr);
  12:src/syscall_cpp.cpp **** }
  13:src/syscall_cpp.cpp **** 
  14:src/syscall_cpp.cpp **** Thread::~Thread() {
  15:src/syscall_cpp.cpp ****     //thread_exit();
  16:src/syscall_cpp.cpp ****     delete myHandle;
  17:src/syscall_cpp.cpp **** }
GAS LISTING /tmp/ccXhxw6L.s 			page 3


  18:src/syscall_cpp.cpp **** 
  19:src/syscall_cpp.cpp **** int Thread::start() {
  20:src/syscall_cpp.cpp ****     if(body)
  21:src/syscall_cpp.cpp ****         return thread_create(&myHandle, body, arg);
  22:src/syscall_cpp.cpp ****     else
  23:src/syscall_cpp.cpp ****         return thread_create(&myHandle, wrapper, this);
  24:src/syscall_cpp.cpp **** }
  25:src/syscall_cpp.cpp **** 
  26:src/syscall_cpp.cpp **** 
  27:src/syscall_cpp.cpp **** void Thread::wrapper(void* par){
  64              		.loc 2 27 32 is_stmt 1
  65              		.cfi_startproc
  66              	.LVL2:
  67 0000 130101FF 		addi	sp,sp,-16
  68              		.cfi_def_cfa_offset 16
  69 0004 23341100 		sd	ra,8(sp)
  70 0008 23308100 		sd	s0,0(sp)
  71              		.cfi_offset 1, -8
  72              		.cfi_offset 8, -16
  73 000c 13040101 		addi	s0,sp,16
  74              		.cfi_def_cfa 8, 0
  28:src/syscall_cpp.cpp ****     Thread* t = (Thread*) par;
  75              		.loc 2 28 5
  76              	.LVL3:
  29:src/syscall_cpp.cpp ****     t->run();
  77              		.loc 2 29 5
  78              		.loc 2 29 12 is_stmt 0
  79 0010 83370500 		ld	a5,0(a0)
  80 0014 83B70701 		ld	a5,16(a5)
  81              		.loc 2 29 11
  82 0018 E7800700 		jalr	a5
  83              	.LVL4:
  30:src/syscall_cpp.cpp **** }
  84              		.loc 2 30 1
  85 001c 83308100 		ld	ra,8(sp)
  86              		.cfi_restore 1
  87 0020 03340100 		ld	s0,0(sp)
  88              		.cfi_restore 8
  89              		.cfi_def_cfa 2, 16
  90 0024 13010101 		addi	sp,sp,16
  91              		.cfi_def_cfa_offset 0
  92 0028 67800000 		jr	ra
  93              		.cfi_endproc
  94              	.LFE50:
  96              		.align	2
  97              		.globl	_ZN6ThreadD2Ev
  99              	_ZN6ThreadD2Ev:
 100              	.LFB46:
  14:src/syscall_cpp.cpp ****     //thread_exit();
 101              		.loc 2 14 1 is_stmt 1
 102              		.cfi_startproc
 103              		.cfi_personality 0x9b,DW.ref.__gxx_personality_v0
 104              		.cfi_lsda 0x1b,.LLSDA46
 105              	.LVL5:
 106 002c 130101FE 		addi	sp,sp,-32
 107              		.cfi_def_cfa_offset 32
 108 0030 233C1100 		sd	ra,24(sp)
GAS LISTING /tmp/ccXhxw6L.s 			page 4


 109 0034 23388100 		sd	s0,16(sp)
 110 0038 23349100 		sd	s1,8(sp)
 111              		.cfi_offset 1, -8
 112              		.cfi_offset 8, -16
 113              		.cfi_offset 9, -24
 114 003c 13040102 		addi	s0,sp,32
 115              		.cfi_def_cfa 8, 0
 116              	.LBB9:
  14:src/syscall_cpp.cpp ****     //thread_exit();
 117              		.loc 2 14 17 is_stmt 0
 118 0040 97070000 		lla	a5,_ZTV6Thread+16
 118      93870700 
 119 0048 2330F500 		sd	a5,0(a0)
  16:src/syscall_cpp.cpp **** }
 120              		.loc 2 16 5 is_stmt 1
  16:src/syscall_cpp.cpp **** }
 121              		.loc 2 16 12 is_stmt 0
 122 004c 83348500 		ld	s1,8(a0)
  16:src/syscall_cpp.cpp **** }
 123              		.loc 2 16 20
 124 0050 638C0402 		beqz	s1,.L7
 125              	.LVL6:
 126              	.LBB10:
 127              	.LBB11:
 128              		.file 3 "src/../h/TCB.h"
   1:src/../h/TCB.h **** //
   2:src/../h/TCB.h **** // Created by os on 7/17/23.
   3:src/../h/TCB.h **** //
   4:src/../h/TCB.h **** 
   5:src/../h/TCB.h **** #ifndef PROJECT_BASE_TCB_H
   6:src/../h/TCB.h **** #define PROJECT_BASE_TCB_H
   7:src/../h/TCB.h **** 
   8:src/../h/TCB.h **** #include "Scheduler.h"
   9:src/../h/TCB.h **** #include "Riscv.h"
  10:src/../h/TCB.h **** #include "Sem.h"
  11:src/../h/TCB.h **** #include "syscall_c.hpp"
  12:src/../h/TCB.h **** 
  13:src/../h/TCB.h **** class Sem;
  14:src/../h/TCB.h **** 
  15:src/../h/TCB.h **** class TCB {
  16:src/../h/TCB.h **** public:
  17:src/../h/TCB.h ****     using Body = void (*)(void*);
  18:src/../h/TCB.h ****     enum STATE{FINISHED, READY, BLOCKED, SLEEPING, IDLE};
  19:src/../h/TCB.h **** 
  20:src/../h/TCB.h ****     ~TCB(){
  21:src/../h/TCB.h ****         running->stack -= (DEFAULT_STACK_SIZE - 1);
 129              		.loc 3 21 9 is_stmt 1
 130              		.loc 3 21 24 is_stmt 0
 131 0054 97070000 		la	a5,_ZN3TCB7runningE
 131      83B70700 
 132 005c 03B70700 		ld	a4,0(a5)
 133 0060 03358700 		ld	a0,8(a4)
 134              	.LVL7:
 135 0064 B787FFFF 		li	a5,-32768
 136 0068 93878700 		addi	a5,a5,8
 137 006c 3305F500 		add	a0,a0,a5
 138 0070 2334A700 		sd	a0,8(a4)
GAS LISTING /tmp/ccXhxw6L.s 			page 5


  22:src/../h/TCB.h ****         MemoryAllocator::mem_free(running->stack);
 139              		.loc 3 22 9 is_stmt 1
 140              		.loc 3 22 34 is_stmt 0
 141 0074 97000000 		call	_ZN15MemoryAllocator8mem_freeEPv@plt
 141      E7800000 
 142              	.LVL8:
 143              	.LBE11:
 144              	.LBE10:
  16:src/syscall_cpp.cpp **** }
 145              		.loc 2 16 12
 146 007c 13850400 		mv	a0,s1
 147 0080 97000000 		call	_ZN3TCBdlEPv@plt
 147      E7800000 
 148              	.LVL9:
 149              	.L7:
 150              	.LBE9:
  17:src/syscall_cpp.cpp **** 
 151              		.loc 2 17 1
 152 0088 83308101 		ld	ra,24(sp)
 153              		.cfi_restore 1
 154 008c 03340101 		ld	s0,16(sp)
 155              		.cfi_restore 8
 156              		.cfi_def_cfa 2, 32
 157 0090 83348100 		ld	s1,8(sp)
 158              		.cfi_restore 9
 159 0094 13010102 		addi	sp,sp,32
 160              		.cfi_def_cfa_offset 0
 161 0098 67800000 		jr	ra
 162              		.cfi_endproc
 163              	.LFE46:
 164              		.globl	__gxx_personality_v0
 165              		.section	.gcc_except_table,"a",@progbits
 166              	.LLSDA46:
 167 0000 FF       		.byte	0xff
 168 0001 FF       		.byte	0xff
 169 0002 03       		.byte	0x3
 170 0003 00       		.byte	0
 171              		.text
 173              		.globl	_ZN6ThreadD1Ev
 174              		.set	_ZN6ThreadD1Ev,_ZN6ThreadD2Ev
 175              		.section	.text._ZN14PeriodicThreadD2Ev,"axG",@progbits,_ZN14PeriodicThreadD5Ev,comdat
 176              		.align	2
 177              		.weak	_ZN14PeriodicThreadD2Ev
 179              	_ZN14PeriodicThreadD2Ev:
 180              	.LFB71:
  34:src/../h/syscall_cpp.hpp **** public:
 181              		.loc 1 34 7 is_stmt 1
 182              		.cfi_startproc
 183              	.LVL10:
 184 0000 130101FF 		addi	sp,sp,-16
 185              		.cfi_def_cfa_offset 16
 186 0004 23341100 		sd	ra,8(sp)
 187 0008 23308100 		sd	s0,0(sp)
 188              		.cfi_offset 1, -8
 189              		.cfi_offset 8, -16
 190 000c 13040101 		addi	s0,sp,16
 191              		.cfi_def_cfa 8, 0
GAS LISTING /tmp/ccXhxw6L.s 			page 6


 192              	.LBB12:
  34:src/../h/syscall_cpp.hpp **** public:
 193              		.loc 1 34 7 is_stmt 0
 194 0010 97070000 		lla	a5,_ZTV14PeriodicThread+16
 194      93870700 
 195 0018 2330F500 		sd	a5,0(a0)
 196 001c 97000000 		call	_ZN6ThreadD2Ev
 196      E7800000 
 197              	.LVL11:
 198              	.LBE12:
 199 0024 83308100 		ld	ra,8(sp)
 200              		.cfi_restore 1
 201 0028 03340100 		ld	s0,0(sp)
 202              		.cfi_restore 8
 203              		.cfi_def_cfa 2, 16
 204 002c 13010101 		addi	sp,sp,16
 205              		.cfi_def_cfa_offset 0
 206 0030 67800000 		jr	ra
 207              		.cfi_endproc
 208              	.LFE71:
 210              		.weak	_ZN14PeriodicThreadD1Ev
 211              		.set	_ZN14PeriodicThreadD1Ev,_ZN14PeriodicThreadD2Ev
 212              		.text
 213              		.align	2
 214              		.globl	_ZN9SemaphoreD2Ev
 216              	_ZN9SemaphoreD2Ev:
 217              	.LFB61:
  31:src/syscall_cpp.cpp **** 
  32:src/syscall_cpp.cpp **** void Thread::join() {
  33:src/syscall_cpp.cpp ****     thread_join(myHandle);
  34:src/syscall_cpp.cpp **** }
  35:src/syscall_cpp.cpp **** 
  36:src/syscall_cpp.cpp **** void Thread::dispatch() {
  37:src/syscall_cpp.cpp ****     thread_dispatch();
  38:src/syscall_cpp.cpp **** }
  39:src/syscall_cpp.cpp **** 
  40:src/syscall_cpp.cpp **** int Thread::sleep(time_t time) {
  41:src/syscall_cpp.cpp ****     return time_sleep(time);
  42:src/syscall_cpp.cpp **** }
  43:src/syscall_cpp.cpp **** 
  44:src/syscall_cpp.cpp **** Thread::Thread() {
  45:src/syscall_cpp.cpp ****     body = nullptr;
  46:src/syscall_cpp.cpp ****     arg = nullptr;
  47:src/syscall_cpp.cpp **** }
  48:src/syscall_cpp.cpp **** 
  49:src/syscall_cpp.cpp **** Semaphore::Semaphore(unsigned int init) {
  50:src/syscall_cpp.cpp ****     sem_open(&myHandle, init);
  51:src/syscall_cpp.cpp **** }
  52:src/syscall_cpp.cpp **** 
  53:src/syscall_cpp.cpp **** Semaphore::~Semaphore() {
 218              		.loc 2 53 1 is_stmt 1
 219              		.cfi_startproc
 220              		.cfi_personality 0x9b,DW.ref.__gxx_personality_v0
 221              		.cfi_lsda 0x1b,.LLSDA61
 222              	.LVL12:
 223 009c 130101FF 		addi	sp,sp,-16
 224              		.cfi_def_cfa_offset 16
GAS LISTING /tmp/ccXhxw6L.s 			page 7


 225 00a0 23341100 		sd	ra,8(sp)
 226 00a4 23308100 		sd	s0,0(sp)
 227              		.cfi_offset 1, -8
 228              		.cfi_offset 8, -16
 229 00a8 13040101 		addi	s0,sp,16
 230              		.cfi_def_cfa 8, 0
 231              	.LBB13:
 232              		.loc 2 53 23 is_stmt 0
 233 00ac 97070000 		lla	a5,_ZTV9Semaphore+16
 233      93870700 
 234 00b4 2330F500 		sd	a5,0(a0)
  54:src/syscall_cpp.cpp ****     sem_close(myHandle);
 235              		.loc 2 54 5 is_stmt 1
 236              		.loc 2 54 14 is_stmt 0
 237 00b8 03358500 		ld	a0,8(a0)
 238              	.LVL13:
 239 00bc 97000000 		call	_Z9sem_closeP3Sem@plt
 239      E7800000 
 240              	.LVL14:
 241              	.LBE13:
  55:src/syscall_cpp.cpp **** }
 242              		.loc 2 55 1
 243 00c4 83308100 		ld	ra,8(sp)
 244              		.cfi_restore 1
 245 00c8 03340100 		ld	s0,0(sp)
 246              		.cfi_restore 8
 247              		.cfi_def_cfa 2, 16
 248 00cc 13010101 		addi	sp,sp,16
 249              		.cfi_def_cfa_offset 0
 250 00d0 67800000 		jr	ra
 251              		.cfi_endproc
 252              	.LFE61:
 253              		.section	.gcc_except_table
 254              	.LLSDA61:
 255 0004 FF       		.byte	0xff
 256 0005 FF       		.byte	0xff
 257 0006 03       		.byte	0x3
 258 0007 00       		.byte	0
 259              		.text
 261              		.globl	_ZN9SemaphoreD1Ev
 262              		.set	_ZN9SemaphoreD1Ev,_ZN9SemaphoreD2Ev
 263              		.align	2
 264              		.globl	_Znwm
 266              	_Znwm:
 267              	.LFB43:
   6:src/syscall_cpp.cpp ****     return mem_alloc(size);
 268              		.loc 2 6 33 is_stmt 1
 269              		.cfi_startproc
 270              	.LVL15:
 271 00d4 130101FF 		addi	sp,sp,-16
 272              		.cfi_def_cfa_offset 16
 273 00d8 23341100 		sd	ra,8(sp)
 274 00dc 23308100 		sd	s0,0(sp)
 275              		.cfi_offset 1, -8
 276              		.cfi_offset 8, -16
 277 00e0 13040101 		addi	s0,sp,16
 278              		.cfi_def_cfa 8, 0
GAS LISTING /tmp/ccXhxw6L.s 			page 8


   7:src/syscall_cpp.cpp **** }
 279              		.loc 2 7 5
   7:src/syscall_cpp.cpp **** }
 280              		.loc 2 7 21 is_stmt 0
 281 00e4 97000000 		call	_Z9mem_allocm@plt
 281      E7800000 
 282              	.LVL16:
   8:src/syscall_cpp.cpp **** 
 283              		.loc 2 8 1
 284 00ec 83308100 		ld	ra,8(sp)
 285              		.cfi_restore 1
 286 00f0 03340100 		ld	s0,0(sp)
 287              		.cfi_restore 8
 288              		.cfi_def_cfa 2, 16
 289 00f4 13010101 		addi	sp,sp,16
 290              		.cfi_def_cfa_offset 0
 291 00f8 67800000 		jr	ra
 292              		.cfi_endproc
 293              	.LFE43:
 295              		.align	2
 296              		.globl	_ZdlPv
 298              	_ZdlPv:
 299              	.LFB44:
  10:src/syscall_cpp.cpp ****     mem_free(ptr);
 300              		.loc 2 10 33 is_stmt 1
 301              		.cfi_startproc
 302              	.LVL17:
 303 00fc 130101FF 		addi	sp,sp,-16
 304              		.cfi_def_cfa_offset 16
 305 0100 23341100 		sd	ra,8(sp)
 306 0104 23308100 		sd	s0,0(sp)
 307              		.cfi_offset 1, -8
 308              		.cfi_offset 8, -16
 309 0108 13040101 		addi	s0,sp,16
 310              		.cfi_def_cfa 8, 0
  11:src/syscall_cpp.cpp **** }
 311              		.loc 2 11 5
  11:src/syscall_cpp.cpp **** }
 312              		.loc 2 11 13 is_stmt 0
 313 010c 97000000 		call	_Z8mem_freePv@plt
 313      E7800000 
 314              	.LVL18:
  12:src/syscall_cpp.cpp **** 
 315              		.loc 2 12 1
 316 0114 83308100 		ld	ra,8(sp)
 317              		.cfi_restore 1
 318 0118 03340100 		ld	s0,0(sp)
 319              		.cfi_restore 8
 320              		.cfi_def_cfa 2, 16
 321 011c 13010101 		addi	sp,sp,16
 322              		.cfi_def_cfa_offset 0
 323 0120 67800000 		jr	ra
 324              		.cfi_endproc
 325              	.LFE44:
 327              		.align	2
 328              		.globl	_ZN6ThreadD0Ev
 330              	_ZN6ThreadD0Ev:
GAS LISTING /tmp/ccXhxw6L.s 			page 9


 331              	.LFB48:
  14:src/syscall_cpp.cpp ****     //thread_exit();
 332              		.loc 2 14 1 is_stmt 1
 333              		.cfi_startproc
 334              	.LVL19:
 335 0124 130101FE 		addi	sp,sp,-32
 336              		.cfi_def_cfa_offset 32
 337 0128 233C1100 		sd	ra,24(sp)
 338 012c 23388100 		sd	s0,16(sp)
 339 0130 23349100 		sd	s1,8(sp)
 340              		.cfi_offset 1, -8
 341              		.cfi_offset 8, -16
 342              		.cfi_offset 9, -24
 343 0134 13040102 		addi	s0,sp,32
 344              		.cfi_def_cfa 8, 0
 345 0138 93040500 		mv	s1,a0
  17:src/syscall_cpp.cpp **** 
 346              		.loc 2 17 1 is_stmt 0
 347 013c 97000000 		call	_ZN6ThreadD1Ev
 347      E7800000 
 348              	.LVL20:
 349 0144 13850400 		mv	a0,s1
 350 0148 97000000 		call	_ZdlPv
 350      E7800000 
 351              	.LVL21:
 352 0150 83308101 		ld	ra,24(sp)
 353              		.cfi_restore 1
 354 0154 03340101 		ld	s0,16(sp)
 355              		.cfi_restore 8
 356              		.cfi_def_cfa 2, 32
 357 0158 83348100 		ld	s1,8(sp)
 358              		.cfi_restore 9
 359              	.LVL22:
 360 015c 13010102 		addi	sp,sp,32
 361              		.cfi_def_cfa_offset 0
 362 0160 67800000 		jr	ra
 363              		.cfi_endproc
 364              	.LFE48:
 366              		.align	2
 367              		.globl	_ZN9SemaphoreD0Ev
 369              	_ZN9SemaphoreD0Ev:
 370              	.LFB63:
  53:src/syscall_cpp.cpp ****     sem_close(myHandle);
 371              		.loc 2 53 1 is_stmt 1
 372              		.cfi_startproc
 373              	.LVL23:
 374 0164 130101FE 		addi	sp,sp,-32
 375              		.cfi_def_cfa_offset 32
 376 0168 233C1100 		sd	ra,24(sp)
 377 016c 23388100 		sd	s0,16(sp)
 378 0170 23349100 		sd	s1,8(sp)
 379              		.cfi_offset 1, -8
 380              		.cfi_offset 8, -16
 381              		.cfi_offset 9, -24
 382 0174 13040102 		addi	s0,sp,32
 383              		.cfi_def_cfa 8, 0
 384 0178 93040500 		mv	s1,a0
GAS LISTING /tmp/ccXhxw6L.s 			page 10


 385              		.loc 2 55 1 is_stmt 0
 386 017c 97000000 		call	_ZN9SemaphoreD1Ev
 386      E7800000 
 387              	.LVL24:
 388 0184 13850400 		mv	a0,s1
 389 0188 97000000 		call	_ZdlPv
 389      E7800000 
 390              	.LVL25:
 391 0190 83308101 		ld	ra,24(sp)
 392              		.cfi_restore 1
 393 0194 03340101 		ld	s0,16(sp)
 394              		.cfi_restore 8
 395              		.cfi_def_cfa 2, 32
 396 0198 83348100 		ld	s1,8(sp)
 397              		.cfi_restore 9
 398              	.LVL26:
 399 019c 13010102 		addi	sp,sp,32
 400              		.cfi_def_cfa_offset 0
 401 01a0 67800000 		jr	ra
 402              		.cfi_endproc
 403              	.LFE63:
 405              		.section	.text._ZN14PeriodicThreadD0Ev,"axG",@progbits,_ZN14PeriodicThreadD5Ev,comdat
 406              		.align	2
 407              		.weak	_ZN14PeriodicThreadD0Ev
 409              	_ZN14PeriodicThreadD0Ev:
 410              	.LFB73:
  34:src/../h/syscall_cpp.hpp **** public:
 411              		.loc 1 34 7 is_stmt 1
 412              		.cfi_startproc
 413              	.LVL27:
 414 0000 130101FE 		addi	sp,sp,-32
 415              		.cfi_def_cfa_offset 32
 416 0004 233C1100 		sd	ra,24(sp)
 417 0008 23388100 		sd	s0,16(sp)
 418 000c 23349100 		sd	s1,8(sp)
 419              		.cfi_offset 1, -8
 420              		.cfi_offset 8, -16
 421              		.cfi_offset 9, -24
 422 0010 13040102 		addi	s0,sp,32
 423              		.cfi_def_cfa 8, 0
 424 0014 93040500 		mv	s1,a0
 425              	.LVL28:
 426              	.LBB14:
 427              	.LBB15:
  34:src/../h/syscall_cpp.hpp **** public:
 428              		.loc 1 34 7 is_stmt 0
 429 0018 97070000 		lla	a5,_ZTV14PeriodicThread+16
 429      93870700 
 430 0020 2330F500 		sd	a5,0(a0)
 431 0024 97000000 		call	_ZN6ThreadD2Ev
 431      E7800000 
 432              	.LVL29:
 433              	.LBE15:
 434              	.LBE14:
 435 002c 13850400 		mv	a0,s1
 436 0030 97000000 		call	_ZdlPv
 436      E7800000 
GAS LISTING /tmp/ccXhxw6L.s 			page 11


 437              	.LVL30:
 438 0038 83308101 		ld	ra,24(sp)
 439              		.cfi_restore 1
 440 003c 03340101 		ld	s0,16(sp)
 441              		.cfi_restore 8
 442              		.cfi_def_cfa 2, 32
 443 0040 83348100 		ld	s1,8(sp)
 444              		.cfi_restore 9
 445              	.LVL31:
 446 0044 13010102 		addi	sp,sp,32
 447              		.cfi_def_cfa_offset 0
 448 0048 67800000 		jr	ra
 449              		.cfi_endproc
 450              	.LFE73:
 452              		.text
 453              		.align	2
 454              		.globl	_ZN6Thread5startEv
 456              	_ZN6Thread5startEv:
 457              	.LFB49:
  19:src/syscall_cpp.cpp ****     if(body)
 458              		.loc 2 19 21 is_stmt 1
 459              		.cfi_startproc
 460              	.LVL32:
 461 01a4 130101FF 		addi	sp,sp,-16
 462              		.cfi_def_cfa_offset 16
 463 01a8 23341100 		sd	ra,8(sp)
 464 01ac 23308100 		sd	s0,0(sp)
 465              		.cfi_offset 1, -8
 466              		.cfi_offset 8, -16
 467 01b0 13040101 		addi	s0,sp,16
 468              		.cfi_def_cfa 8, 0
  20:src/syscall_cpp.cpp ****         return thread_create(&myHandle, body, arg);
 469              		.loc 2 20 5
  20:src/syscall_cpp.cpp ****         return thread_create(&myHandle, body, arg);
 470              		.loc 2 20 8 is_stmt 0
 471 01b4 83350501 		ld	a1,16(a0)
  20:src/syscall_cpp.cpp ****         return thread_create(&myHandle, body, arg);
 472              		.loc 2 20 5
 473 01b8 63820502 		beqz	a1,.L25
  21:src/syscall_cpp.cpp ****     else
 474              		.loc 2 21 9 is_stmt 1
  21:src/syscall_cpp.cpp ****     else
 475              		.loc 2 21 29 is_stmt 0
 476 01bc 03368501 		ld	a2,24(a0)
 477 01c0 13058500 		addi	a0,a0,8
 478              	.LVL33:
 479 01c4 97000000 		call	_Z13thread_createPP3TCBPFvPvES2_@plt
 479      E7800000 
 480              	.LVL34:
 481              	.L26:
  24:src/syscall_cpp.cpp **** 
 482              		.loc 2 24 1
 483 01cc 83308100 		ld	ra,8(sp)
 484              		.cfi_remember_state
 485              		.cfi_restore 1
 486 01d0 03340100 		ld	s0,0(sp)
 487              		.cfi_restore 8
GAS LISTING /tmp/ccXhxw6L.s 			page 12


 488              		.cfi_def_cfa 2, 16
 489 01d4 13010101 		addi	sp,sp,16
 490              		.cfi_def_cfa_offset 0
 491 01d8 67800000 		jr	ra
 492              	.LVL35:
 493              	.L25:
 494              		.cfi_restore_state
  23:src/syscall_cpp.cpp **** }
 495              		.loc 2 23 9 is_stmt 1
  23:src/syscall_cpp.cpp **** }
 496              		.loc 2 23 29 is_stmt 0
 497 01dc 13060500 		mv	a2,a0
 498 01e0 97050000 		lla	a1,_ZN6Thread7wrapperEPv
 498      93850500 
 499 01e8 13058500 		addi	a0,a0,8
 500              	.LVL36:
 501 01ec 97000000 		call	_Z13thread_createPP3TCBPFvPvES2_@plt
 501      E7800000 
 502              	.LVL37:
  23:src/syscall_cpp.cpp **** }
 503              		.loc 2 23 54
 504 01f4 6FF09FFD 		j	.L26
 505              		.cfi_endproc
 506              	.LFE49:
 508              		.align	2
 509              		.globl	_ZN6Thread4joinEv
 511              	_ZN6Thread4joinEv:
 512              	.LFB51:
  32:src/syscall_cpp.cpp ****     thread_join(myHandle);
 513              		.loc 2 32 21 is_stmt 1
 514              		.cfi_startproc
 515              	.LVL38:
 516 01f8 130101FF 		addi	sp,sp,-16
 517              		.cfi_def_cfa_offset 16
 518 01fc 23341100 		sd	ra,8(sp)
 519 0200 23308100 		sd	s0,0(sp)
 520              		.cfi_offset 1, -8
 521              		.cfi_offset 8, -16
 522 0204 13040101 		addi	s0,sp,16
 523              		.cfi_def_cfa 8, 0
  33:src/syscall_cpp.cpp **** }
 524              		.loc 2 33 5
  33:src/syscall_cpp.cpp **** }
 525              		.loc 2 33 16 is_stmt 0
 526 0208 03358500 		ld	a0,8(a0)
 527              	.LVL39:
 528 020c 97000000 		call	_Z11thread_joinP3TCB@plt
 528      E7800000 
 529              	.LVL40:
  34:src/syscall_cpp.cpp **** 
 530              		.loc 2 34 1
 531 0214 83308100 		ld	ra,8(sp)
 532              		.cfi_restore 1
 533 0218 03340100 		ld	s0,0(sp)
 534              		.cfi_restore 8
 535              		.cfi_def_cfa 2, 16
 536 021c 13010101 		addi	sp,sp,16
GAS LISTING /tmp/ccXhxw6L.s 			page 13


 537              		.cfi_def_cfa_offset 0
 538 0220 67800000 		jr	ra
 539              		.cfi_endproc
 540              	.LFE51:
 542              		.align	2
 543              		.globl	_ZN6Thread8dispatchEv
 545              	_ZN6Thread8dispatchEv:
 546              	.LFB52:
  36:src/syscall_cpp.cpp ****     thread_dispatch();
 547              		.loc 2 36 25 is_stmt 1
 548              		.cfi_startproc
 549 0224 130101FF 		addi	sp,sp,-16
 550              		.cfi_def_cfa_offset 16
 551 0228 23341100 		sd	ra,8(sp)
 552 022c 23308100 		sd	s0,0(sp)
 553              		.cfi_offset 1, -8
 554              		.cfi_offset 8, -16
 555 0230 13040101 		addi	s0,sp,16
 556              		.cfi_def_cfa 8, 0
  37:src/syscall_cpp.cpp **** }
 557              		.loc 2 37 5
  37:src/syscall_cpp.cpp **** }
 558              		.loc 2 37 20 is_stmt 0
 559 0234 97000000 		call	_Z15thread_dispatchv@plt
 559      E7800000 
 560              	.LVL41:
  38:src/syscall_cpp.cpp **** 
 561              		.loc 2 38 1
 562 023c 83308100 		ld	ra,8(sp)
 563              		.cfi_restore 1
 564 0240 03340100 		ld	s0,0(sp)
 565              		.cfi_restore 8
 566              		.cfi_def_cfa 2, 16
 567 0244 13010101 		addi	sp,sp,16
 568              		.cfi_def_cfa_offset 0
 569 0248 67800000 		jr	ra
 570              		.cfi_endproc
 571              	.LFE52:
 573              		.align	2
 574              		.globl	_ZN6Thread5sleepEm
 576              	_ZN6Thread5sleepEm:
 577              	.LFB53:
  40:src/syscall_cpp.cpp ****     return time_sleep(time);
 578              		.loc 2 40 32 is_stmt 1
 579              		.cfi_startproc
 580              	.LVL42:
 581 024c 130101FF 		addi	sp,sp,-16
 582              		.cfi_def_cfa_offset 16
 583 0250 23341100 		sd	ra,8(sp)
 584 0254 23308100 		sd	s0,0(sp)
 585              		.cfi_offset 1, -8
 586              		.cfi_offset 8, -16
 587 0258 13040101 		addi	s0,sp,16
 588              		.cfi_def_cfa 8, 0
  41:src/syscall_cpp.cpp **** }
 589              		.loc 2 41 5
  41:src/syscall_cpp.cpp **** }
GAS LISTING /tmp/ccXhxw6L.s 			page 14


 590              		.loc 2 41 22 is_stmt 0
 591 025c 97000000 		call	_Z10time_sleepm@plt
 591      E7800000 
 592              	.LVL43:
  42:src/syscall_cpp.cpp **** 
 593              		.loc 2 42 1
 594 0264 83308100 		ld	ra,8(sp)
 595              		.cfi_restore 1
 596 0268 03340100 		ld	s0,0(sp)
 597              		.cfi_restore 8
 598              		.cfi_def_cfa 2, 16
 599 026c 13010101 		addi	sp,sp,16
 600              		.cfi_def_cfa_offset 0
 601 0270 67800000 		jr	ra
 602              		.cfi_endproc
 603              	.LFE53:
 605              		.align	2
 606              		.globl	_ZN14PeriodicThread3runEv
 608              	_ZN14PeriodicThread3runEv:
 609              	.LFB67:
  56:src/syscall_cpp.cpp **** 
  57:src/syscall_cpp.cpp **** int Semaphore::wait() {
  58:src/syscall_cpp.cpp ****     return sem_wait(myHandle);
  59:src/syscall_cpp.cpp **** }
  60:src/syscall_cpp.cpp **** 
  61:src/syscall_cpp.cpp **** int Semaphore::signal() {
  62:src/syscall_cpp.cpp ****     return sem_signal(myHandle);
  63:src/syscall_cpp.cpp **** }
  64:src/syscall_cpp.cpp **** 
  65:src/syscall_cpp.cpp **** void PeriodicThread::terminate() {
  66:src/syscall_cpp.cpp ****     period = 0;
  67:src/syscall_cpp.cpp **** }
  68:src/syscall_cpp.cpp **** 
  69:src/syscall_cpp.cpp **** void PeriodicThread::run() {
 610              		.loc 2 69 28 is_stmt 1
 611              		.cfi_startproc
 612              	.LVL44:
 613 0274 130101FE 		addi	sp,sp,-32
 614              		.cfi_def_cfa_offset 32
 615 0278 233C1100 		sd	ra,24(sp)
 616 027c 23388100 		sd	s0,16(sp)
 617 0280 23349100 		sd	s1,8(sp)
 618              		.cfi_offset 1, -8
 619              		.cfi_offset 8, -16
 620              		.cfi_offset 9, -24
 621 0284 13040102 		addi	s0,sp,32
 622              		.cfi_def_cfa 8, 0
 623 0288 93040500 		mv	s1,a0
 624              	.LVL45:
 625              	.L36:
  70:src/syscall_cpp.cpp ****     while(period != 0){
 626              		.loc 2 70 5
 627              		.loc 2 70 18
 628              		.loc 2 70 11 is_stmt 0
 629 028c 83B70402 		ld	a5,32(s1)
 630              		.loc 2 70 18
 631 0290 63820702 		beqz	a5,.L34
GAS LISTING /tmp/ccXhxw6L.s 			page 15


  71:src/syscall_cpp.cpp ****         periodicActivation();
 632              		.loc 2 71 9 is_stmt 1
 633              		.loc 2 71 28 is_stmt 0
 634 0294 83B70400 		ld	a5,0(s1)
 635 0298 83B78701 		ld	a5,24(a5)
 636              		.loc 2 71 27
 637 029c 13850400 		mv	a0,s1
 638 02a0 E7800700 		jalr	a5
 639              	.LVL46:
  72:src/syscall_cpp.cpp ****         sleep(period);
 640              		.loc 2 72 9 is_stmt 1
 641              		.loc 2 72 14 is_stmt 0
 642 02a4 03B50402 		ld	a0,32(s1)
 643 02a8 97000000 		call	_ZN6Thread5sleepEm
 643      E7800000 
 644              	.LVL47:
  70:src/syscall_cpp.cpp ****     while(period != 0){
 645              		.loc 2 70 5
 646 02b0 6FF0DFFD 		j	.L36
 647              	.L34:
  73:src/syscall_cpp.cpp ****     }
  74:src/syscall_cpp.cpp **** }
 648              		.loc 2 74 1
 649 02b4 83308101 		ld	ra,24(sp)
 650              		.cfi_restore 1
 651 02b8 03340101 		ld	s0,16(sp)
 652              		.cfi_restore 8
 653              		.cfi_def_cfa 2, 32
 654 02bc 83348100 		ld	s1,8(sp)
 655              		.cfi_restore 9
 656              	.LVL48:
 657 02c0 13010102 		addi	sp,sp,32
 658              		.cfi_def_cfa_offset 0
 659 02c4 67800000 		jr	ra
 660              		.cfi_endproc
 661              	.LFE67:
 663              		.align	2
 664              		.globl	_ZN6ThreadC2Ev
 666              	_ZN6ThreadC2Ev:
 667              	.LFB55:
  44:src/syscall_cpp.cpp ****     body = nullptr;
 668              		.loc 2 44 1 is_stmt 1
 669              		.cfi_startproc
 670              	.LVL49:
 671 02c8 130101FF 		addi	sp,sp,-16
 672              		.cfi_def_cfa_offset 16
 673 02cc 23348100 		sd	s0,8(sp)
 674              		.cfi_offset 8, -8
 675 02d0 13040101 		addi	s0,sp,16
 676              		.cfi_def_cfa 8, 0
 677              	.LBB16:
  44:src/syscall_cpp.cpp ****     body = nullptr;
 678              		.loc 2 44 16 is_stmt 0
 679 02d4 97070000 		lla	a5,_ZTV6Thread+16
 679      93870700 
 680 02dc 2330F500 		sd	a5,0(a0)
  45:src/syscall_cpp.cpp ****     arg = nullptr;
GAS LISTING /tmp/ccXhxw6L.s 			page 16


 681              		.loc 2 45 5 is_stmt 1
  45:src/syscall_cpp.cpp ****     arg = nullptr;
 682              		.loc 2 45 10 is_stmt 0
 683 02e0 23380500 		sd	zero,16(a0)
  46:src/syscall_cpp.cpp **** }
 684              		.loc 2 46 5 is_stmt 1
  46:src/syscall_cpp.cpp **** }
 685              		.loc 2 46 9 is_stmt 0
 686 02e4 233C0500 		sd	zero,24(a0)
 687              	.LBE16:
  47:src/syscall_cpp.cpp **** 
 688              		.loc 2 47 1
 689 02e8 03348100 		ld	s0,8(sp)
 690              		.cfi_restore 8
 691              		.cfi_def_cfa 2, 16
 692 02ec 13010101 		addi	sp,sp,16
 693              		.cfi_def_cfa_offset 0
 694 02f0 67800000 		jr	ra
 695              		.cfi_endproc
 696              	.LFE55:
 698              		.globl	_ZN6ThreadC1Ev
 699              		.set	_ZN6ThreadC1Ev,_ZN6ThreadC2Ev
 700              		.align	2
 701              		.globl	_ZN9SemaphoreC2Ej
 703              	_ZN9SemaphoreC2Ej:
 704              	.LFB58:
  49:src/syscall_cpp.cpp ****     sem_open(&myHandle, init);
 705              		.loc 2 49 1 is_stmt 1
 706              		.cfi_startproc
 707              	.LVL50:
 708 02f4 130101FF 		addi	sp,sp,-16
 709              		.cfi_def_cfa_offset 16
 710 02f8 23341100 		sd	ra,8(sp)
 711 02fc 23308100 		sd	s0,0(sp)
 712              		.cfi_offset 1, -8
 713              		.cfi_offset 8, -16
 714 0300 13040101 		addi	s0,sp,16
 715              		.cfi_def_cfa 8, 0
 716              	.LBB17:
  49:src/syscall_cpp.cpp ****     sem_open(&myHandle, init);
 717              		.loc 2 49 39 is_stmt 0
 718 0304 97070000 		lla	a5,_ZTV9Semaphore+16
 718      93870700 
 719 030c 2330F500 		sd	a5,0(a0)
  50:src/syscall_cpp.cpp **** }
 720              		.loc 2 50 5 is_stmt 1
  50:src/syscall_cpp.cpp **** }
 721              		.loc 2 50 13 is_stmt 0
 722 0310 13058500 		addi	a0,a0,8
 723              	.LVL51:
 724 0314 97000000 		call	_Z8sem_openPP3Semj@plt
 724      E7800000 
 725              	.LVL52:
 726              	.LBE17:
  51:src/syscall_cpp.cpp **** 
 727              		.loc 2 51 1
 728 031c 83308100 		ld	ra,8(sp)
GAS LISTING /tmp/ccXhxw6L.s 			page 17


 729              		.cfi_restore 1
 730 0320 03340100 		ld	s0,0(sp)
 731              		.cfi_restore 8
 732              		.cfi_def_cfa 2, 16
 733 0324 13010101 		addi	sp,sp,16
 734              		.cfi_def_cfa_offset 0
 735 0328 67800000 		jr	ra
 736              		.cfi_endproc
 737              	.LFE58:
 739              		.globl	_ZN9SemaphoreC1Ej
 740              		.set	_ZN9SemaphoreC1Ej,_ZN9SemaphoreC2Ej
 741              		.align	2
 742              		.globl	_ZN9Semaphore4waitEv
 744              	_ZN9Semaphore4waitEv:
 745              	.LFB64:
  57:src/syscall_cpp.cpp ****     return sem_wait(myHandle);
 746              		.loc 2 57 23 is_stmt 1
 747              		.cfi_startproc
 748              	.LVL53:
 749 032c 130101FF 		addi	sp,sp,-16
 750              		.cfi_def_cfa_offset 16
 751 0330 23341100 		sd	ra,8(sp)
 752 0334 23308100 		sd	s0,0(sp)
 753              		.cfi_offset 1, -8
 754              		.cfi_offset 8, -16
 755 0338 13040101 		addi	s0,sp,16
 756              		.cfi_def_cfa 8, 0
  58:src/syscall_cpp.cpp **** }
 757              		.loc 2 58 5
  58:src/syscall_cpp.cpp **** }
 758              		.loc 2 58 20 is_stmt 0
 759 033c 03358500 		ld	a0,8(a0)
 760              	.LVL54:
 761 0340 97000000 		call	_Z8sem_waitP3Sem@plt
 761      E7800000 
 762              	.LVL55:
  59:src/syscall_cpp.cpp **** 
 763              		.loc 2 59 1
 764 0348 83308100 		ld	ra,8(sp)
 765              		.cfi_restore 1
 766 034c 03340100 		ld	s0,0(sp)
 767              		.cfi_restore 8
 768              		.cfi_def_cfa 2, 16
 769 0350 13010101 		addi	sp,sp,16
 770              		.cfi_def_cfa_offset 0
 771 0354 67800000 		jr	ra
 772              		.cfi_endproc
 773              	.LFE64:
 775              		.align	2
 776              		.globl	_ZN9Semaphore6signalEv
 778              	_ZN9Semaphore6signalEv:
 779              	.LFB65:
  61:src/syscall_cpp.cpp ****     return sem_signal(myHandle);
 780              		.loc 2 61 25 is_stmt 1
 781              		.cfi_startproc
 782              	.LVL56:
 783 0358 130101FF 		addi	sp,sp,-16
GAS LISTING /tmp/ccXhxw6L.s 			page 18


 784              		.cfi_def_cfa_offset 16
 785 035c 23341100 		sd	ra,8(sp)
 786 0360 23308100 		sd	s0,0(sp)
 787              		.cfi_offset 1, -8
 788              		.cfi_offset 8, -16
 789 0364 13040101 		addi	s0,sp,16
 790              		.cfi_def_cfa 8, 0
  62:src/syscall_cpp.cpp **** }
 791              		.loc 2 62 5
  62:src/syscall_cpp.cpp **** }
 792              		.loc 2 62 22 is_stmt 0
 793 0368 03358500 		ld	a0,8(a0)
 794              	.LVL57:
 795 036c 97000000 		call	_Z10sem_signalP3Sem@plt
 795      E7800000 
 796              	.LVL58:
  63:src/syscall_cpp.cpp **** 
 797              		.loc 2 63 1
 798 0374 83308100 		ld	ra,8(sp)
 799              		.cfi_restore 1
 800 0378 03340100 		ld	s0,0(sp)
 801              		.cfi_restore 8
 802              		.cfi_def_cfa 2, 16
 803 037c 13010101 		addi	sp,sp,16
 804              		.cfi_def_cfa_offset 0
 805 0380 67800000 		jr	ra
 806              		.cfi_endproc
 807              	.LFE65:
 809              		.align	2
 810              		.globl	_ZN14PeriodicThread9terminateEv
 812              	_ZN14PeriodicThread9terminateEv:
 813              	.LFB66:
  65:src/syscall_cpp.cpp ****     period = 0;
 814              		.loc 2 65 34 is_stmt 1
 815              		.cfi_startproc
 816              	.LVL59:
 817 0384 130101FF 		addi	sp,sp,-16
 818              		.cfi_def_cfa_offset 16
 819 0388 23348100 		sd	s0,8(sp)
 820              		.cfi_offset 8, -8
 821 038c 13040101 		addi	s0,sp,16
 822              		.cfi_def_cfa 8, 0
  66:src/syscall_cpp.cpp **** }
 823              		.loc 2 66 5
  66:src/syscall_cpp.cpp **** }
 824              		.loc 2 66 12 is_stmt 0
 825 0390 23300502 		sd	zero,32(a0)
  67:src/syscall_cpp.cpp **** 
 826              		.loc 2 67 1
 827 0394 03348100 		ld	s0,8(sp)
 828              		.cfi_restore 8
 829              		.cfi_def_cfa 2, 16
 830 0398 13010101 		addi	sp,sp,16
 831              		.cfi_def_cfa_offset 0
 832 039c 67800000 		jr	ra
 833              		.cfi_endproc
 834              	.LFE66:
GAS LISTING /tmp/ccXhxw6L.s 			page 19


 836              		.align	2
 837              		.globl	_ZN7Console4getcEv
 839              	_ZN7Console4getcEv:
 840              	.LFB68:
  75:src/syscall_cpp.cpp **** 
  76:src/syscall_cpp.cpp **** char Console::getc() {
 841              		.loc 2 76 22 is_stmt 1
 842              		.cfi_startproc
 843 03a0 130101FF 		addi	sp,sp,-16
 844              		.cfi_def_cfa_offset 16
 845 03a4 23341100 		sd	ra,8(sp)
 846 03a8 23308100 		sd	s0,0(sp)
 847              		.cfi_offset 1, -8
 848              		.cfi_offset 8, -16
 849 03ac 13040101 		addi	s0,sp,16
 850              		.cfi_def_cfa 8, 0
  77:src/syscall_cpp.cpp ****     return ::getc();
 851              		.loc 2 77 5
 852              		.loc 2 77 18 is_stmt 0
 853 03b0 97000000 		call	_Z4getcv@plt
 853      E7800000 
 854              	.LVL60:
  78:src/syscall_cpp.cpp **** }
 855              		.loc 2 78 1
 856 03b8 83308100 		ld	ra,8(sp)
 857              		.cfi_restore 1
 858 03bc 03340100 		ld	s0,0(sp)
 859              		.cfi_restore 8
 860              		.cfi_def_cfa 2, 16
 861 03c0 13010101 		addi	sp,sp,16
 862              		.cfi_def_cfa_offset 0
 863 03c4 67800000 		jr	ra
 864              		.cfi_endproc
 865              	.LFE68:
 867              		.align	2
 868              		.globl	_ZN7Console4putcEc
 870              	_ZN7Console4putcEc:
 871              	.LFB69:
  79:src/syscall_cpp.cpp **** 
  80:src/syscall_cpp.cpp **** void Console::putc(char c) {
 872              		.loc 2 80 28 is_stmt 1
 873              		.cfi_startproc
 874              	.LVL61:
 875 03c8 130101FF 		addi	sp,sp,-16
 876              		.cfi_def_cfa_offset 16
 877 03cc 23341100 		sd	ra,8(sp)
 878 03d0 23308100 		sd	s0,0(sp)
 879              		.cfi_offset 1, -8
 880              		.cfi_offset 8, -16
 881 03d4 13040101 		addi	s0,sp,16
 882              		.cfi_def_cfa 8, 0
  81:src/syscall_cpp.cpp ****     ::putc(c);
 883              		.loc 2 81 5
 884              		.loc 2 81 11 is_stmt 0
 885 03d8 97000000 		call	_Z4putcc@plt
 885      E7800000 
 886              	.LVL62:
GAS LISTING /tmp/ccXhxw6L.s 			page 20


  82:src/syscall_cpp.cpp **** }
 887              		.loc 2 82 1
 888 03e0 83308100 		ld	ra,8(sp)
 889              		.cfi_restore 1
 890 03e4 03340100 		ld	s0,0(sp)
 891              		.cfi_restore 8
 892              		.cfi_def_cfa 2, 16
 893 03e8 13010101 		addi	sp,sp,16
 894              		.cfi_def_cfa_offset 0
 895 03ec 67800000 		jr	ra
 896              		.cfi_endproc
 897              	.LFE69:
 899              		.weak	_ZTV6Thread
 900              		.section	.data.rel.ro.local._ZTV6Thread,"awG",@progbits,_ZTV6Thread,comdat
 901              		.align	3
 904              	_ZTV6Thread:
 905 0000 00000000 		.dword	0
 905      00000000 
 906 0008 00000000 		.dword	0
 906      00000000 
 907 0010 00000000 		.dword	_ZN6ThreadD1Ev
 907      00000000 
 908 0018 00000000 		.dword	_ZN6ThreadD0Ev
 908      00000000 
 909 0020 00000000 		.dword	_ZN6Thread3runEv
 909      00000000 
 910              		.weak	_ZTV9Semaphore
 911              		.section	.data.rel.ro.local._ZTV9Semaphore,"awG",@progbits,_ZTV9Semaphore,comdat
 912              		.align	3
 915              	_ZTV9Semaphore:
 916 0000 00000000 		.dword	0
 916      00000000 
 917 0008 00000000 		.dword	0
 917      00000000 
 918 0010 00000000 		.dword	_ZN9SemaphoreD1Ev
 918      00000000 
 919 0018 00000000 		.dword	_ZN9SemaphoreD0Ev
 919      00000000 
 920              		.weak	_ZTV14PeriodicThread
 921              		.section	.data.rel.ro.local._ZTV14PeriodicThread,"awG",@progbits,_ZTV14PeriodicThread,comdat
 922              		.align	3
 925              	_ZTV14PeriodicThread:
 926 0000 00000000 		.dword	0
 926      00000000 
 927 0008 00000000 		.dword	0
 927      00000000 
 928 0010 00000000 		.dword	_ZN14PeriodicThreadD1Ev
 928      00000000 
 929 0018 00000000 		.dword	_ZN14PeriodicThreadD0Ev
 929      00000000 
 930 0020 00000000 		.dword	_ZN14PeriodicThread3runEv
 930      00000000 
 931 0028 00000000 		.dword	_ZN14PeriodicThread18periodicActivationEv
 931      00000000 
 932              		.text
 933              	.Letext0:
 934              		.file 4 "src/../h/../lib/hw.h"
GAS LISTING /tmp/ccXhxw6L.s 			page 21


 935              		.file 5 "src/../h/MemoryAllocator.h"
 936              		.file 6 "src/../h/Sem.h"
 937              		.file 7 "src/../h/syscall_c.hpp"
 5052              		.align	3
 5055              	DW.ref.__gxx_personality_v0:
 5056 0000 00000000 		.dword	__gxx_personality_v0
 5056      00000000 
 5057              		.ident	"GCC: (Ubuntu 9.4.0-1ubuntu1~20.04) 9.4.0"
 5058              		.section	.note.GNU-stack,"",@progbits
GAS LISTING /tmp/ccXhxw6L.s 			page 22

