GAS LISTING /tmp/ccfVn9hx.s 			page 1


   1              		.file	"TCB.cpp"
   2              		.option pic
   3              		.option norelax
   4              		.text
   5              	.Ltext0:
   6              		.align	2
   7              		.globl	_ZN3TCB10idleThreadEPv
   9              	_ZN3TCB10idleThreadEPv:
  10              	.LFB43:
  11              		.file 1 "src/TCB.cpp"
   1:src/TCB.cpp   **** //
   2:src/TCB.cpp   **** // Created by os on 7/17/23.
   3:src/TCB.cpp   **** //
   4:src/TCB.cpp   **** 
   5:src/TCB.cpp   **** #include "../h/TCB.h"
   6:src/TCB.cpp   **** 
   7:src/TCB.cpp   **** TCB *TCB::running = nullptr;
   8:src/TCB.cpp   **** 
   9:src/TCB.cpp   **** TCB *TCB::createThread(Body body, uint64* stack, void* arg)
  10:src/TCB.cpp   **** {
  11:src/TCB.cpp   ****     if(running == nullptr){
  12:src/TCB.cpp   ****         running = new TCB(nullptr, nullptr, nullptr, DEFAULT_TIME_SLICE);
  13:src/TCB.cpp   ****     }
  14:src/TCB.cpp   **** 
  15:src/TCB.cpp   ****     return new TCB(body, stack, arg, DEFAULT_TIME_SLICE);
  16:src/TCB.cpp   **** }
  17:src/TCB.cpp   **** 
  18:src/TCB.cpp   **** void TCB::dispatch()
  19:src/TCB.cpp   **** {
  20:src/TCB.cpp   ****     TCB *old = running;
  21:src/TCB.cpp   ****     running->resTimeSlice();
  22:src/TCB.cpp   ****     if (old->state == TCB::READY) { Scheduler::put(old); }
  23:src/TCB.cpp   ****     if(running->state == TCB::IDLE) {
  24:src/TCB.cpp   ****         /*running->stack -= (DEFAULT_STACK_SIZE - 1);
  25:src/TCB.cpp   ****         MemoryAllocator::mem_free(running->stack);*/
  26:src/TCB.cpp   ****         delete running;
  27:src/TCB.cpp   ****     }
  28:src/TCB.cpp   ****     running = Scheduler::get();
  29:src/TCB.cpp   ****     if(running == nullptr){
  30:src/TCB.cpp   ****         uint64* stack = (uint64*) mem_alloc(DEFAULT_STACK_SIZE);
  31:src/TCB.cpp   ****         stack+=DEFAULT_STACK_SIZE - 1;
  32:src/TCB.cpp   ****         running = new TCB(idleThread, stack, nullptr, DEFAULT_TIME_SLICE);
  33:src/TCB.cpp   ****         running->setState(TCB::IDLE);
  34:src/TCB.cpp   ****     }
  35:src/TCB.cpp   **** 
  36:src/TCB.cpp   ****     TCB::contextSwitch(&old->context, &running->context);
  37:src/TCB.cpp   **** }
  38:src/TCB.cpp   **** 
  39:src/TCB.cpp   **** void TCB::threadWrapper()
  40:src/TCB.cpp   **** {
  41:src/TCB.cpp   ****     Riscv::popSppSpie();
  42:src/TCB.cpp   ****     running->body(running->arg);
  43:src/TCB.cpp   ****     thread_exit();
  44:src/TCB.cpp   **** }
  45:src/TCB.cpp   **** 
  46:src/TCB.cpp   **** void TCB::contextSwitch(TCB::Context *oldContext, TCB::Context *runningContext) {
  47:src/TCB.cpp   ****     __asm__ volatile("sd ra, 0 * 8(a0)");
GAS LISTING /tmp/ccfVn9hx.s 			page 2


  48:src/TCB.cpp   ****     __asm__ volatile("sd sp, 1 * 8(a0)");
  49:src/TCB.cpp   ****     __asm__ volatile("ld ra, 0 * 8(a1)");
  50:src/TCB.cpp   ****     __asm__ volatile("ld sp, 1 * 8(a1)");
  51:src/TCB.cpp   **** }
  52:src/TCB.cpp   **** 
  53:src/TCB.cpp   **** int TCB::exit() {
  54:src/TCB.cpp   ****     if(running == nullptr) return -1;
  55:src/TCB.cpp   ****     running->setState(STATE::FINISHED);
  56:src/TCB.cpp   ****     //running->stack -= DEFAULT_STACK_SIZE + 1;
  57:src/TCB.cpp   ****     //MemoryAllocator::mem_free(running->stack);
  58:src/TCB.cpp   ****     //dodajj ovo
  59:src/TCB.cpp   ****     //mozes u destruktor da stavis
  60:src/TCB.cpp   ****     running->notifayAllJoinSem();
  61:src/TCB.cpp   ****     dispatch();
  62:src/TCB.cpp   ****     return 0;
  63:src/TCB.cpp   **** }
  64:src/TCB.cpp   **** 
  65:src/TCB.cpp   **** void TCB::pushJoinSem(Sem *data) {
  66:src/TCB.cpp   ****     Node *cur = new Node();
  67:src/TCB.cpp   ****     cur->data = data;
  68:src/TCB.cpp   ****     cur->next = head;
  69:src/TCB.cpp   **** 
  70:src/TCB.cpp   ****     head = cur;
  71:src/TCB.cpp   **** }
  72:src/TCB.cpp   **** 
  73:src/TCB.cpp   **** void TCB::notifayAllJoinSem() {
  74:src/TCB.cpp   ****     while(head != nullptr){
  75:src/TCB.cpp   ****         Node* prev = head;
  76:src/TCB.cpp   ****         head->data->signal();
  77:src/TCB.cpp   ****         head = head->next;
  78:src/TCB.cpp   ****         delete prev;
  79:src/TCB.cpp   ****     }
  80:src/TCB.cpp   **** }
  81:src/TCB.cpp   **** 
  82:src/TCB.cpp   **** void TCB::join(TCB *thread) {
  83:src/TCB.cpp   ****     if(!thread->isFinished()) {
  84:src/TCB.cpp   ****         Sem* sem = Sem::createSem(0);
  85:src/TCB.cpp   **** 
  86:src/TCB.cpp   ****         thread->pushJoinSem(sem);
  87:src/TCB.cpp   ****         sem->wait();
  88:src/TCB.cpp   ****         delete sem;
  89:src/TCB.cpp   ****     }
  90:src/TCB.cpp   **** }
  91:src/TCB.cpp   **** 
  92:src/TCB.cpp   **** void TCB::idleThread(void *) {
  12              		.loc 1 92 30
  13              		.cfi_startproc
  14 0000 130101FF 		addi	sp,sp,-16
  15              		.cfi_def_cfa_offset 16
  16 0004 23348100 		sd	s0,8(sp)
  17              		.cfi_offset 8, -8
  18 0008 13040101 		addi	s0,sp,16
  19              		.cfi_def_cfa 8, 0
  20              	.L2:
  93:src/TCB.cpp   ****     while(true);
  21              		.loc 1 93 5 discriminator 1
  22              		.loc 1 93 5 discriminator 1
GAS LISTING /tmp/ccfVn9hx.s 			page 3


  23 000c 6F000000 		j	.L2
  24              		.cfi_endproc
  25              	.LFE43:
  27              		.align	2
  28              		.globl	_ZN3TCB13threadWrapperEv
  30              	_ZN3TCB13threadWrapperEv:
  31              	.LFB37:
  40:src/TCB.cpp   ****     Riscv::popSppSpie();
  32              		.loc 1 40 1
  33              		.cfi_startproc
  34 0010 130101FF 		addi	sp,sp,-16
  35              		.cfi_def_cfa_offset 16
  36 0014 23341100 		sd	ra,8(sp)
  37 0018 23308100 		sd	s0,0(sp)
  38              		.cfi_offset 1, -8
  39              		.cfi_offset 8, -16
  40 001c 13040101 		addi	s0,sp,16
  41              		.cfi_def_cfa 8, 0
  41:src/TCB.cpp   ****     running->body(running->arg);
  42              		.loc 1 41 5
  41:src/TCB.cpp   ****     running->body(running->arg);
  43              		.loc 1 41 22 is_stmt 0
  44 0020 97000000 		call	_ZN5Riscv10popSppSpieEv@plt
  44      E7800000 
  45              	.LVL0:
  42:src/TCB.cpp   ****     thread_exit();
  46              		.loc 1 42 5 is_stmt 1
  42:src/TCB.cpp   ****     thread_exit();
  47              		.loc 1 42 14 is_stmt 0
  48 0028 97070000 		ld	a5,.LANCHOR0
  48      83B70700 
  49 0030 03B70700 		ld	a4,0(a5)
  42:src/TCB.cpp   ****     thread_exit();
  50              		.loc 1 42 18
  51 0034 03B50702 		ld	a0,32(a5)
  52 0038 E7000700 		jalr	a4
  53              	.LVL1:
  43:src/TCB.cpp   **** }
  54              		.loc 1 43 5 is_stmt 1
  43:src/TCB.cpp   **** }
  55              		.loc 1 43 16 is_stmt 0
  56 003c 97000000 		call	_Z11thread_exitv@plt
  56      E7800000 
  57              	.LVL2:
  44:src/TCB.cpp   **** 
  58              		.loc 1 44 1
  59 0044 83308100 		ld	ra,8(sp)
  60              		.cfi_restore 1
  61 0048 03340100 		ld	s0,0(sp)
  62              		.cfi_restore 8
  63              		.cfi_def_cfa 2, 16
  64 004c 13010101 		addi	sp,sp,16
  65              		.cfi_def_cfa_offset 0
  66 0050 67800000 		jr	ra
  67              		.cfi_endproc
  68              	.LFE37:
  70              		.align	2
GAS LISTING /tmp/ccfVn9hx.s 			page 4


  71              		.globl	_ZN3TCB13contextSwitchEPNS_7ContextES1_
  73              	_ZN3TCB13contextSwitchEPNS_7ContextES1_:
  74              	.LFB38:
  46:src/TCB.cpp   ****     __asm__ volatile("sd ra, 0 * 8(a0)");
  75              		.loc 1 46 81 is_stmt 1
  76              		.cfi_startproc
  77              	.LVL3:
  78 0054 130101FF 		addi	sp,sp,-16
  79              		.cfi_def_cfa_offset 16
  80 0058 23348100 		sd	s0,8(sp)
  81              		.cfi_offset 8, -8
  82 005c 13040101 		addi	s0,sp,16
  83              		.cfi_def_cfa 8, 0
  47:src/TCB.cpp   ****     __asm__ volatile("sd sp, 1 * 8(a0)");
  84              		.loc 1 47 5
  47:src/TCB.cpp   ****     __asm__ volatile("sd sp, 1 * 8(a0)");
  85              		.loc 1 47 41 is_stmt 0
  86              	#APP
  87              	# 47 "src/TCB.cpp" 1
  48:src/TCB.cpp   ****     __asm__ volatile("ld ra, 0 * 8(a1)");
  88              		sd ra, 0 * 8(a0)
  89              	# 0 "" 2
  90              		.loc 1 48 5 is_stmt 1
  48:src/TCB.cpp   ****     __asm__ volatile("ld ra, 0 * 8(a1)");
  91              		.loc 1 48 41 is_stmt 0
  92              	# 48 "src/TCB.cpp" 1
  49:src/TCB.cpp   ****     __asm__ volatile("ld sp, 1 * 8(a1)");
  93              		sd sp, 1 * 8(a0)
  94              	# 0 "" 2
  95              		.loc 1 49 5 is_stmt 1
  49:src/TCB.cpp   ****     __asm__ volatile("ld sp, 1 * 8(a1)");
  96              		.loc 1 49 41 is_stmt 0
  97              	# 49 "src/TCB.cpp" 1
  50:src/TCB.cpp   **** }
  98              		ld ra, 0 * 8(a1)
  99              	# 0 "" 2
 100              		.loc 1 50 5 is_stmt 1
  50:src/TCB.cpp   **** }
 101              		.loc 1 50 41 is_stmt 0
 102              	# 50 "src/TCB.cpp" 1
  51:src/TCB.cpp   **** 
 103              		ld sp, 1 * 8(a1)
 104              	# 0 "" 2
 105              		.loc 1 51 1
 106              	#NO_APP
 107 0070 03348100 		ld	s0,8(sp)
 108              		.cfi_restore 8
 109              		.cfi_def_cfa 2, 16
 110 0074 13010101 		addi	sp,sp,16
 111              		.cfi_def_cfa_offset 0
 112 0078 67800000 		jr	ra
 113              		.cfi_endproc
 114              	.LFE38:
 116              		.align	2
 117              		.globl	_ZN3TCBdlEPv
 119              	_ZN3TCBdlEPv:
 120              	.LFB44:
GAS LISTING /tmp/ccfVn9hx.s 			page 5


  94:src/TCB.cpp   **** }
  95:src/TCB.cpp   **** 
  96:src/TCB.cpp   **** void TCB::operator delete(void *ptr) {
 121              		.loc 1 96 38 is_stmt 1
 122              		.cfi_startproc
 123              	.LVL4:
 124 007c 130101FF 		addi	sp,sp,-16
 125              		.cfi_def_cfa_offset 16
 126 0080 23341100 		sd	ra,8(sp)
 127 0084 23308100 		sd	s0,0(sp)
 128              		.cfi_offset 1, -8
 129              		.cfi_offset 8, -16
 130 0088 13040101 		addi	s0,sp,16
 131              		.cfi_def_cfa 8, 0
  97:src/TCB.cpp   ****     MemoryAllocator::mem_free(ptr);
 132              		.loc 1 97 5
 133              		.loc 1 97 30 is_stmt 0
 134 008c 97000000 		call	_ZN15MemoryAllocator8mem_freeEPv@plt
 134      E7800000 
 135              	.LVL5:
  98:src/TCB.cpp   **** }
 136              		.loc 1 98 1
 137 0094 83308100 		ld	ra,8(sp)
 138              		.cfi_restore 1
 139 0098 03340100 		ld	s0,0(sp)
 140              		.cfi_restore 8
 141              		.cfi_def_cfa 2, 16
 142 009c 13010101 		addi	sp,sp,16
 143              		.cfi_def_cfa_offset 0
 144 00a0 67800000 		jr	ra
 145              		.cfi_endproc
 146              	.LFE44:
 148              		.align	2
 149              		.globl	_ZN3TCBnwEm
 151              	_ZN3TCBnwEm:
 152              	.LFB45:
  99:src/TCB.cpp   **** 
 100:src/TCB.cpp   **** void *TCB::operator new(size_t size) {
 153              		.loc 1 100 38 is_stmt 1
 154              		.cfi_startproc
 155              	.LVL6:
 156 00a4 130101FF 		addi	sp,sp,-16
 157              		.cfi_def_cfa_offset 16
 158 00a8 23341100 		sd	ra,8(sp)
 159 00ac 23308100 		sd	s0,0(sp)
 160              		.cfi_offset 1, -8
 161              		.cfi_offset 8, -16
 162 00b0 13040101 		addi	s0,sp,16
 163              		.cfi_def_cfa 8, 0
 101:src/TCB.cpp   ****     return MemoryAllocator::mem_alloc(size);
 164              		.loc 1 101 5
 165              		.loc 1 101 38 is_stmt 0
 166 00b4 97000000 		call	_ZN15MemoryAllocator9mem_allocEm@plt
 166      E7800000 
 167              	.LVL7:
 102:src/TCB.cpp   **** }
 168              		.loc 1 102 1
GAS LISTING /tmp/ccfVn9hx.s 			page 6


 169 00bc 83308100 		ld	ra,8(sp)
 170              		.cfi_restore 1
 171 00c0 03340100 		ld	s0,0(sp)
 172              		.cfi_restore 8
 173              		.cfi_def_cfa 2, 16
 174 00c4 13010101 		addi	sp,sp,16
 175              		.cfi_def_cfa_offset 0
 176 00c8 67800000 		jr	ra
 177              		.cfi_endproc
 178              	.LFE45:
 180              		.align	2
 181              		.globl	_ZN3TCB12createThreadEPFvPvEPmS0_
 183              	_ZN3TCB12createThreadEPFvPvEPmS0_:
 184              	.LFB35:
  10:src/TCB.cpp   ****     if(running == nullptr){
 185              		.loc 1 10 1 is_stmt 1
 186              		.cfi_startproc
 187              	.LVL8:
 188 00cc 130101FD 		addi	sp,sp,-48
 189              		.cfi_def_cfa_offset 48
 190 00d0 23341102 		sd	ra,40(sp)
 191 00d4 23308102 		sd	s0,32(sp)
 192 00d8 233C9100 		sd	s1,24(sp)
 193 00dc 23382101 		sd	s2,16(sp)
 194 00e0 23343101 		sd	s3,8(sp)
 195              		.cfi_offset 1, -8
 196              		.cfi_offset 8, -16
 197              		.cfi_offset 9, -24
 198              		.cfi_offset 18, -32
 199              		.cfi_offset 19, -40
 200 00e4 13040103 		addi	s0,sp,48
 201              		.cfi_def_cfa 8, 0
 202 00e8 93090500 		mv	s3,a0
 203 00ec 93840500 		mv	s1,a1
 204 00f0 13090600 		mv	s2,a2
  11:src/TCB.cpp   ****         running = new TCB(nullptr, nullptr, nullptr, DEFAULT_TIME_SLICE);
 205              		.loc 1 11 5
  11:src/TCB.cpp   ****         running = new TCB(nullptr, nullptr, nullptr, DEFAULT_TIME_SLICE);
 206              		.loc 1 11 16 is_stmt 0
 207 00f4 97070000 		ld	a5,.LANCHOR0
 207      83B70700 
  11:src/TCB.cpp   ****         running = new TCB(nullptr, nullptr, nullptr, DEFAULT_TIME_SLICE);
 208              		.loc 1 11 5
 209 00fc 63820706 		beqz	a5,.L15
 210              	.LVL9:
 211              	.L13:
  15:src/TCB.cpp   **** }
 212              		.loc 1 15 5 is_stmt 1
  15:src/TCB.cpp   **** }
 213              		.loc 1 15 56 is_stmt 0
 214 0100 13050005 		li	a0,80
 215 0104 97000000 		call	_ZN3TCBnwEm
 215      E7800000 
 216              	.LVL10:
 217              	.LBB34:
 218              	.LBB35:
 219              		.file 2 "src/../h/TCB.h"
GAS LISTING /tmp/ccfVn9hx.s 			page 7


   1:src/../h/TCB.h **** //
   2:src/../h/TCB.h **** // Created by os on 7/17/23.
   3:src/../h/TCB.h **** //
   4:src/../h/TCB.h **** 
   5:src/../h/TCB.h **** #ifndef PROJECT_BASE_TCB_H
   6:src/../h/TCB.h **** #define PROJECT_BASE_TCB_H
   7:src/../h/TCB.h **** 
   8:src/../h/TCB.h **** #include "Scheduler.h"
   9:src/../h/TCB.h **** #include "Riscv.h"
  10:src/../h/TCB.h **** #include "Sem.h"
  11:src/../h/TCB.h **** #include "syscall_c.hpp"
  12:src/../h/TCB.h **** 
  13:src/../h/TCB.h **** class Sem;
  14:src/../h/TCB.h **** 
  15:src/../h/TCB.h **** class TCB {
  16:src/../h/TCB.h **** public:
  17:src/../h/TCB.h ****     using Body = void (*)(void*);
  18:src/../h/TCB.h ****     enum STATE{FINISHED, READY, BLOCKED, SLEEPING, IDLE};
  19:src/../h/TCB.h **** 
  20:src/../h/TCB.h ****     ~TCB(){
  21:src/../h/TCB.h ****         running->stack -= (DEFAULT_STACK_SIZE - 1);
  22:src/../h/TCB.h ****         MemoryAllocator::mem_free(running->stack);
  23:src/../h/TCB.h ****         //mozda bi trebao syscall
  24:src/../h/TCB.h ****     }
  25:src/../h/TCB.h **** 
  26:src/../h/TCB.h ****     void *operator new(size_t size);
  27:src/../h/TCB.h ****     void operator delete(void *ptr);
  28:src/../h/TCB.h **** 
  29:src/../h/TCB.h **** private:
  30:src/../h/TCB.h ****     TCB(Body body, uint64* stack, void* arg, uint64 timeSlice) :
  31:src/../h/TCB.h ****         body(body),
  32:src/../h/TCB.h ****         stack(stack),
  33:src/../h/TCB.h ****         context({(uint64) threadWrapper,
  34:src/../h/TCB.h ****                  (uint64) stack
  35:src/../h/TCB.h ****                 }),
  36:src/../h/TCB.h ****         arg(arg),
  37:src/../h/TCB.h ****         timeSlice(timeSlice),
  38:src/../h/TCB.h ****         restimeSlice(timeSlice),
  39:src/../h/TCB.h ****         state(READY)
 220              		.loc 2 39 20
 221 010c 23303501 		sd	s3,0(a0)
 222 0110 23349500 		sd	s1,8(a0)
 223 0114 17070000 		lla	a4,_ZN3TCB13threadWrapperEv
 223      13070700 
 224 011c 2338E500 		sd	a4,16(a0)
 225 0120 233C9500 		sd	s1,24(a0)
 226 0124 23302503 		sd	s2,32(a0)
 227 0128 13072000 		li	a4,2
 228 012c 2334E502 		sd	a4,40(a0)
 229 0130 2338E502 		sd	a4,48(a0)
 230 0134 13071000 		li	a4,1
 231 0138 232CE502 		sw	a4,56(a0)
  40:src/../h/TCB.h ****     {
  41:src/../h/TCB.h ****         head = nullptr;
 232              		.loc 2 41 9 is_stmt 1
 233              		.loc 2 41 14 is_stmt 0
 234 013c 23300504 		sd	zero,64(a0)
GAS LISTING /tmp/ccfVn9hx.s 			page 8


  42:src/../h/TCB.h ****         retFromClosedSem = false;
 235              		.loc 2 42 9 is_stmt 1
 236              		.loc 2 42 26 is_stmt 0
 237 0140 23040504 		sb	zero,72(a0)
 238              	.LVL11:
 239              	.LBE35:
 240              	.LBE34:
  16:src/TCB.cpp   **** 
 241              		.loc 1 16 1
 242 0144 83308102 		ld	ra,40(sp)
 243              		.cfi_remember_state
 244              		.cfi_restore 1
 245 0148 03340102 		ld	s0,32(sp)
 246              		.cfi_restore 8
 247              		.cfi_def_cfa 2, 48
 248 014c 83348101 		ld	s1,24(sp)
 249              		.cfi_restore 9
 250              	.LVL12:
 251 0150 03390101 		ld	s2,16(sp)
 252              		.cfi_restore 18
 253              	.LVL13:
 254 0154 83398100 		ld	s3,8(sp)
 255              		.cfi_restore 19
 256              	.LVL14:
 257 0158 13010103 		addi	sp,sp,48
 258              		.cfi_def_cfa_offset 0
 259 015c 67800000 		jr	ra
 260              	.LVL15:
 261              	.L15:
 262              		.cfi_restore_state
  12:src/TCB.cpp   ****     }
 263              		.loc 1 12 9 is_stmt 1
  12:src/TCB.cpp   ****     }
 264              		.loc 1 12 72 is_stmt 0
 265 0160 13050005 		li	a0,80
 266              	.LVL16:
 267 0164 97000000 		call	_ZN3TCBnwEm
 267      E7800000 
 268              	.LVL17:
 269              	.LBB36:
 270              	.LBB37:
  39:src/../h/TCB.h ****     {
 271              		.loc 2 39 20
 272 016c 23300500 		sd	zero,0(a0)
 273 0170 23340500 		sd	zero,8(a0)
 274 0174 17070000 		lla	a4,_ZN3TCB13threadWrapperEv
 274      13070700 
 275 017c 2338E500 		sd	a4,16(a0)
 276 0180 233C0500 		sd	zero,24(a0)
 277 0184 23300502 		sd	zero,32(a0)
 278 0188 13072000 		li	a4,2
 279 018c 2334E502 		sd	a4,40(a0)
 280 0190 2338E502 		sd	a4,48(a0)
 281 0194 13071000 		li	a4,1
 282 0198 232CE502 		sw	a4,56(a0)
  41:src/../h/TCB.h ****         retFromClosedSem = false;
 283              		.loc 2 41 9 is_stmt 1
GAS LISTING /tmp/ccfVn9hx.s 			page 9


  41:src/../h/TCB.h ****         retFromClosedSem = false;
 284              		.loc 2 41 14 is_stmt 0
 285 019c 23300504 		sd	zero,64(a0)
 286              		.loc 2 42 9 is_stmt 1
 287              		.loc 2 42 26 is_stmt 0
 288 01a0 23040504 		sb	zero,72(a0)
 289              	.LVL18:
 290              	.LBE37:
 291              	.LBE36:
  12:src/TCB.cpp   ****     }
 292              		.loc 1 12 17
 293 01a4 17070000 		sd	a0,.LANCHOR0,a4
 293      2330A700 
 294 01ac 6FF05FF5 		j	.L13
 295              		.cfi_endproc
 296              	.LFE35:
 298              		.align	2
 299              		.globl	_ZN3TCB8dispatchEv
 301              	_ZN3TCB8dispatchEv:
 302              	.LFB36:
  19:src/TCB.cpp   ****     TCB *old = running;
 303              		.loc 1 19 1 is_stmt 1
 304              		.cfi_startproc
 305              		.cfi_personality 0x9b,DW.ref.__gxx_personality_v0
 306              		.cfi_lsda 0x1b,.LLSDA36
 307 01b0 130101FE 		addi	sp,sp,-32
 308              		.cfi_def_cfa_offset 32
 309 01b4 233C1100 		sd	ra,24(sp)
 310 01b8 23388100 		sd	s0,16(sp)
 311 01bc 23349100 		sd	s1,8(sp)
 312 01c0 23302101 		sd	s2,0(sp)
 313              		.cfi_offset 1, -8
 314              		.cfi_offset 8, -16
 315              		.cfi_offset 9, -24
 316              		.cfi_offset 18, -32
 317 01c4 13040102 		addi	s0,sp,32
 318              		.cfi_def_cfa 8, 0
  20:src/TCB.cpp   ****     running->resTimeSlice();
 319              		.loc 1 20 5
  20:src/TCB.cpp   ****     running->resTimeSlice();
 320              		.loc 1 20 10 is_stmt 0
 321 01c8 97040000 		ld	s1,.LANCHOR0
 321      83B40400 
 322              	.LVL19:
  21:src/TCB.cpp   ****     if (old->state == TCB::READY) { Scheduler::put(old); }
 323              		.loc 1 21 5 is_stmt 1
 324              	.LBB38:
 325              	.LBB39:
  43:src/../h/TCB.h ****     }
  44:src/../h/TCB.h **** 
  45:src/../h/TCB.h ****     struct Context
  46:src/../h/TCB.h ****     {
  47:src/../h/TCB.h ****         uint64 ra;
  48:src/../h/TCB.h ****         uint64 sp;
  49:src/../h/TCB.h ****     };
  50:src/../h/TCB.h **** 
  51:src/../h/TCB.h ****     struct Node{
GAS LISTING /tmp/ccfVn9hx.s 			page 10


  52:src/../h/TCB.h ****         Sem* data;
  53:src/../h/TCB.h ****         Node* next;
  54:src/../h/TCB.h **** 
  55:src/../h/TCB.h ****         void *operator new(size_t size);
  56:src/../h/TCB.h ****         void operator delete(void *ptr);
  57:src/../h/TCB.h ****     };
  58:src/../h/TCB.h **** 
  59:src/../h/TCB.h ****     void pushJoinSem(Sem* data);
  60:src/../h/TCB.h ****     void notifayAllJoinSem();
  61:src/../h/TCB.h ****     void join(TCB* thread);
  62:src/../h/TCB.h **** 
  63:src/../h/TCB.h ****     static TCB *running;
  64:src/../h/TCB.h **** 
  65:src/../h/TCB.h ****     Body body;
  66:src/../h/TCB.h ****     uint64 *stack;
  67:src/../h/TCB.h ****     Context context;
  68:src/../h/TCB.h ****     void* arg;
  69:src/../h/TCB.h ****     uint64 timeSlice;
  70:src/../h/TCB.h ****     uint64 restimeSlice;
  71:src/../h/TCB.h ****     STATE state;
  72:src/../h/TCB.h ****     Node * head;
  73:src/../h/TCB.h ****     bool retFromClosedSem;
  74:src/../h/TCB.h **** 
  75:src/../h/TCB.h ****     bool isFinished() const { return state == STATE::FINISHED; }
  76:src/../h/TCB.h ****     void setState(STATE value) { state = value; }
  77:src/../h/TCB.h ****     uint64 getTimeSlice() const { return timeSlice; }
  78:src/../h/TCB.h ****     void setTimeSlice(uint64 time) { restimeSlice = time; }
  79:src/../h/TCB.h ****     void resTimeSlice() { timeSlice = restimeSlice; }
 326              		.loc 2 79 27
 327              		.loc 2 79 39 is_stmt 0
 328 01d0 83B70403 		ld	a5,48(s1)
 329              		.loc 2 79 37
 330 01d4 23B4F402 		sd	a5,40(s1)
 331              	.LVL20:
 332              	.LBE39:
 333              	.LBE38:
  22:src/TCB.cpp   ****     if(running->state == TCB::IDLE) {
 334              		.loc 1 22 5 is_stmt 1
  22:src/TCB.cpp   ****     if(running->state == TCB::IDLE) {
 335              		.loc 1 22 14 is_stmt 0
 336 01d8 03A78403 		lw	a4,56(s1)
  22:src/TCB.cpp   ****     if(running->state == TCB::IDLE) {
 337              		.loc 1 22 5
 338 01dc 93071000 		li	a5,1
 339 01e0 630EF704 		beq	a4,a5,.L21
 340              	.L17:
  23:src/TCB.cpp   ****         /*running->stack -= (DEFAULT_STACK_SIZE - 1);
 341              		.loc 1 23 5 is_stmt 1
  23:src/TCB.cpp   ****         /*running->stack -= (DEFAULT_STACK_SIZE - 1);
 342              		.loc 1 23 17 is_stmt 0
 343 01e4 17090000 		ld	s2,.LANCHOR0
 343      03390900 
 344 01ec 03278903 		lw	a4,56(s2)
  23:src/TCB.cpp   ****         /*running->stack -= (DEFAULT_STACK_SIZE - 1);
 345              		.loc 1 23 5
 346 01f0 93074000 		li	a5,4
 347 01f4 630CF704 		beq	a4,a5,.L22
GAS LISTING /tmp/ccfVn9hx.s 			page 11


 348              	.L18:
  28:src/TCB.cpp   ****     if(running == nullptr){
 349              		.loc 1 28 5 is_stmt 1
 350              	.LEHB0:
  28:src/TCB.cpp   ****     if(running == nullptr){
 351              		.loc 1 28 29 is_stmt 0
 352 01f8 97000000 		call	_ZN9Scheduler3getEv@plt
 352      E7800000 
 353              	.LVL21:
  28:src/TCB.cpp   ****     if(running == nullptr){
 354              		.loc 1 28 13
 355 0200 97070000 		sd	a0,.LANCHOR0,a5
 355      23B0A700 
  29:src/TCB.cpp   ****         uint64* stack = (uint64*) mem_alloc(DEFAULT_STACK_SIZE);
 356              		.loc 1 29 5 is_stmt 1
 357              	.LBB40:
 358 0208 630A0506 		beqz	a0,.L23
 359              	.L19:
 360              	.LBE40:
  36:src/TCB.cpp   **** }
 361              		.loc 1 36 5
  36:src/TCB.cpp   **** }
 362              		.loc 1 36 23 is_stmt 0
 363 020c 97050000 		ld	a1,.LANCHOR0
 363      83B50500 
 364 0214 93850501 		addi	a1,a1,16
 365 0218 13850401 		addi	a0,s1,16
 366 021c 97000000 		call	_ZN3TCB13contextSwitchEPNS_7ContextES1_
 366      E7800000 
 367              	.LVL22:
  37:src/TCB.cpp   **** 
 368              		.loc 1 37 1
 369 0224 83308101 		ld	ra,24(sp)
 370              		.cfi_remember_state
 371              		.cfi_restore 1
 372 0228 03340101 		ld	s0,16(sp)
 373              		.cfi_restore 8
 374              		.cfi_def_cfa 2, 32
 375 022c 83348100 		ld	s1,8(sp)
 376              		.cfi_restore 9
 377              	.LVL23:
 378 0230 03390100 		ld	s2,0(sp)
 379              		.cfi_restore 18
 380 0234 13010102 		addi	sp,sp,32
 381              		.cfi_def_cfa_offset 0
 382 0238 67800000 		jr	ra
 383              	.LVL24:
 384              	.L21:
 385              		.cfi_restore_state
  22:src/TCB.cpp   ****     if(running->state == TCB::IDLE) {
 386              		.loc 1 22 37 is_stmt 1 discriminator 1
  22:src/TCB.cpp   ****     if(running->state == TCB::IDLE) {
 387              		.loc 1 22 51 is_stmt 0 discriminator 1
 388 023c 13850400 		mv	a0,s1
 389 0240 97000000 		call	_ZN9Scheduler3putEP3TCB@plt
 389      E7800000 
 390              	.LVL25:
GAS LISTING /tmp/ccfVn9hx.s 			page 12


 391              	.LEHE0:
 392 0248 6FF0DFF9 		j	.L17
 393              	.L22:
  26:src/TCB.cpp   ****     }
 394              		.loc 1 26 9 is_stmt 1
  26:src/TCB.cpp   ****     }
 395              		.loc 1 26 23 is_stmt 0
 396 024c E30609FA 		beqz	s2,.L18
 397              	.LVL26:
 398              	.LBB46:
 399              	.LBB47:
  21:src/../h/TCB.h ****         MemoryAllocator::mem_free(running->stack);
 400              		.loc 2 21 9 is_stmt 1
  21:src/../h/TCB.h ****         MemoryAllocator::mem_free(running->stack);
 401              		.loc 2 21 24 is_stmt 0
 402 0250 03358900 		ld	a0,8(s2)
 403 0254 B787FFFF 		li	a5,-32768
 404 0258 93878700 		addi	a5,a5,8
 405 025c 3305F500 		add	a0,a0,a5
 406 0260 2334A900 		sd	a0,8(s2)
  22:src/../h/TCB.h ****         //mozda bi trebao syscall
 407              		.loc 2 22 9 is_stmt 1
  22:src/../h/TCB.h ****         //mozda bi trebao syscall
 408              		.loc 2 22 34 is_stmt 0
 409 0264 97000000 		call	_ZN15MemoryAllocator8mem_freeEPv@plt
 409      E7800000 
 410              	.LVL27:
 411              	.LBE47:
 412              	.LBE46:
  26:src/TCB.cpp   ****     }
 413              		.loc 1 26 16
 414 026c 13050900 		mv	a0,s2
 415              	.LEHB1:
 416 0270 97000000 		call	_ZN3TCBdlEPv
 416      E7800000 
 417              	.LVL28:
 418 0278 6FF01FF8 		j	.L18
 419              	.L23:
 420              	.LBB48:
 421              	.LBB41:
  30:src/TCB.cpp   ****         stack+=DEFAULT_STACK_SIZE - 1;
 422              		.loc 1 30 9 is_stmt 1
  30:src/TCB.cpp   ****         stack+=DEFAULT_STACK_SIZE - 1;
 423              		.loc 1 30 44 is_stmt 0
 424 027c 37150000 		li	a0,4096
 425 0280 97000000 		call	_Z9mem_allocm@plt
 425      E7800000 
 426              	.LVL29:
  31:src/TCB.cpp   ****         running = new TCB(idleThread, stack, nullptr, DEFAULT_TIME_SLICE);
 427              		.loc 1 31 9 is_stmt 1
  31:src/TCB.cpp   ****         running = new TCB(idleThread, stack, nullptr, DEFAULT_TIME_SLICE);
 428              		.loc 1 31 14 is_stmt 0
 429 0288 37890000 		li	s2,32768
 430 028c 130989FF 		addi	s2,s2,-8
 431 0290 33092501 		add	s2,a0,s2
 432              	.LVL30:
  32:src/TCB.cpp   ****         running->setState(TCB::IDLE);
GAS LISTING /tmp/ccfVn9hx.s 			page 13


 433              		.loc 1 32 9 is_stmt 1
  32:src/TCB.cpp   ****         running->setState(TCB::IDLE);
 434              		.loc 1 32 73 is_stmt 0
 435 0294 13050005 		li	a0,80
 436 0298 97000000 		call	_ZN3TCBnwEm
 436      E7800000 
 437              	.LVL31:
 438              	.LEHE1:
 439              	.LBB42:
 440              	.LBB43:
  39:src/../h/TCB.h ****     {
 441              		.loc 2 39 20
 442 02a0 97070000 		lla	a5,_ZN3TCB10idleThreadEPv
 442      93870700 
 443 02a8 2330F500 		sd	a5,0(a0)
 444 02ac 23342501 		sd	s2,8(a0)
 445 02b0 97070000 		lla	a5,_ZN3TCB13threadWrapperEv
 445      93870700 
 446 02b8 2338F500 		sd	a5,16(a0)
 447 02bc 233C2501 		sd	s2,24(a0)
 448 02c0 23300502 		sd	zero,32(a0)
 449 02c4 93072000 		li	a5,2
 450 02c8 2334F502 		sd	a5,40(a0)
 451 02cc 2338F502 		sd	a5,48(a0)
  41:src/../h/TCB.h ****         retFromClosedSem = false;
 452              		.loc 2 41 9 is_stmt 1
  41:src/../h/TCB.h ****         retFromClosedSem = false;
 453              		.loc 2 41 14 is_stmt 0
 454 02d0 23300504 		sd	zero,64(a0)
  42:src/../h/TCB.h ****     }
 455              		.loc 2 42 9 is_stmt 1
  42:src/../h/TCB.h ****     }
 456              		.loc 2 42 26 is_stmt 0
 457 02d4 23040504 		sb	zero,72(a0)
 458              	.LVL32:
 459              	.LBE43:
 460              	.LBE42:
  32:src/TCB.cpp   ****         running->setState(TCB::IDLE);
 461              		.loc 1 32 17
 462 02d8 97070000 		sd	a0,.LANCHOR0,a5
 462      23B0A700 
  33:src/TCB.cpp   ****     }
 463              		.loc 1 33 9 is_stmt 1
 464              	.LVL33:
 465              	.LBB44:
 466              	.LBB45:
  76:src/../h/TCB.h ****     uint64 getTimeSlice() const { return timeSlice; }
 467              		.loc 2 76 34
  76:src/../h/TCB.h ****     uint64 getTimeSlice() const { return timeSlice; }
 468              		.loc 2 76 40 is_stmt 0
 469 02e0 93074000 		li	a5,4
 470 02e4 232CF502 		sw	a5,56(a0)
  76:src/../h/TCB.h ****     uint64 getTimeSlice() const { return timeSlice; }
 471              		.loc 2 76 49
 472 02e8 6FF05FF2 		j	.L19
 473              	.LBE45:
 474              	.LBE44:
GAS LISTING /tmp/ccfVn9hx.s 			page 14


 475              	.LBE41:
 476              	.LBE48:
 477              		.cfi_endproc
 478              	.LFE36:
 479              		.globl	__gxx_personality_v0
 480              		.section	.gcc_except_table,"a",@progbits
 481              	.LLSDA36:
 482 0000 FF       		.byte	0xff
 483 0001 FF       		.byte	0xff
 484 0002 03       		.byte	0x3
 485 0003 1A       		.byte	0x1a
 486 0004 00000000 		.4byte	.LEHB0-.LFB36
 487 0008 00000000 		.4byte	.LEHE0-.LEHB0
 488 000c 00000000 		.4byte	0
 489 0010 00       		.byte	0
 490 0011 00000000 		.4byte	.LEHB1-.LFB36
 491 0015 00000000 		.4byte	.LEHE1-.LEHB1
 492 0019 00000000 		.4byte	0
 493 001d 00       		.byte	0
 494              		.text
 496              		.align	2
 497              		.globl	_ZN3TCB4NodenwEm
 499              	_ZN3TCB4NodenwEm:
 500              	.LFB46:
 103:src/TCB.cpp   **** 
 104:src/TCB.cpp   **** void *TCB::Node::operator new(size_t size) {
 501              		.loc 1 104 44 is_stmt 1
 502              		.cfi_startproc
 503              	.LVL34:
 504 02ec 130101FF 		addi	sp,sp,-16
 505              		.cfi_def_cfa_offset 16
 506 02f0 23341100 		sd	ra,8(sp)
 507 02f4 23308100 		sd	s0,0(sp)
 508              		.cfi_offset 1, -8
 509              		.cfi_offset 8, -16
 510 02f8 13040101 		addi	s0,sp,16
 511              		.cfi_def_cfa 8, 0
 105:src/TCB.cpp   ****     return MemoryAllocator::mem_alloc(size);
 512              		.loc 1 105 5
 513              		.loc 1 105 38 is_stmt 0
 514 02fc 97000000 		call	_ZN15MemoryAllocator9mem_allocEm@plt
 514      E7800000 
 515              	.LVL35:
 106:src/TCB.cpp   **** }
 516              		.loc 1 106 1
 517 0304 83308100 		ld	ra,8(sp)
 518              		.cfi_restore 1
 519 0308 03340100 		ld	s0,0(sp)
 520              		.cfi_restore 8
 521              		.cfi_def_cfa 2, 16
 522 030c 13010101 		addi	sp,sp,16
 523              		.cfi_def_cfa_offset 0
 524 0310 67800000 		jr	ra
 525              		.cfi_endproc
 526              	.LFE46:
 528              		.align	2
 529              		.globl	_ZN3TCB11pushJoinSemEP3Sem
GAS LISTING /tmp/ccfVn9hx.s 			page 15


 531              	_ZN3TCB11pushJoinSemEP3Sem:
 532              	.LFB40:
  65:src/TCB.cpp   ****     Node *cur = new Node();
 533              		.loc 1 65 34 is_stmt 1
 534              		.cfi_startproc
 535              	.LVL36:
 536 0314 130101FE 		addi	sp,sp,-32
 537              		.cfi_def_cfa_offset 32
 538 0318 233C1100 		sd	ra,24(sp)
 539 031c 23388100 		sd	s0,16(sp)
 540 0320 23349100 		sd	s1,8(sp)
 541 0324 23302101 		sd	s2,0(sp)
 542              		.cfi_offset 1, -8
 543              		.cfi_offset 8, -16
 544              		.cfi_offset 9, -24
 545              		.cfi_offset 18, -32
 546 0328 13040102 		addi	s0,sp,32
 547              		.cfi_def_cfa 8, 0
 548 032c 93040500 		mv	s1,a0
 549 0330 13890500 		mv	s2,a1
  66:src/TCB.cpp   ****     cur->data = data;
 550              		.loc 1 66 5
  66:src/TCB.cpp   ****     cur->data = data;
 551              		.loc 1 66 26 is_stmt 0
 552 0334 13050001 		li	a0,16
 553              	.LVL37:
 554 0338 97000000 		call	_ZN3TCB4NodenwEm
 554      E7800000 
 555              	.LVL38:
 556 0340 23340500 		sd	zero,8(a0)
 557              	.LVL39:
  67:src/TCB.cpp   ****     cur->next = head;
 558              		.loc 1 67 5 is_stmt 1
  67:src/TCB.cpp   ****     cur->next = head;
 559              		.loc 1 67 15 is_stmt 0
 560 0344 23302501 		sd	s2,0(a0)
  68:src/TCB.cpp   **** 
 561              		.loc 1 68 5 is_stmt 1
  68:src/TCB.cpp   **** 
 562              		.loc 1 68 17 is_stmt 0
 563 0348 83B70404 		ld	a5,64(s1)
  68:src/TCB.cpp   **** 
 564              		.loc 1 68 15
 565 034c 2334F500 		sd	a5,8(a0)
  70:src/TCB.cpp   **** }
 566              		.loc 1 70 5 is_stmt 1
  70:src/TCB.cpp   **** }
 567              		.loc 1 70 10 is_stmt 0
 568 0350 23B0A404 		sd	a0,64(s1)
  71:src/TCB.cpp   **** 
 569              		.loc 1 71 1
 570 0354 83308101 		ld	ra,24(sp)
 571              		.cfi_restore 1
 572 0358 03340101 		ld	s0,16(sp)
 573              		.cfi_restore 8
 574              		.cfi_def_cfa 2, 32
 575 035c 83348100 		ld	s1,8(sp)
GAS LISTING /tmp/ccfVn9hx.s 			page 16


 576              		.cfi_restore 9
 577              	.LVL40:
 578 0360 03390100 		ld	s2,0(sp)
 579              		.cfi_restore 18
 580              	.LVL41:
 581 0364 13010102 		addi	sp,sp,32
 582              		.cfi_def_cfa_offset 0
 583 0368 67800000 		jr	ra
 584              		.cfi_endproc
 585              	.LFE40:
 587              		.align	2
 588              		.globl	_ZN3TCB4joinEPS_
 590              	_ZN3TCB4joinEPS_:
 591              	.LFB42:
  82:src/TCB.cpp   ****     if(!thread->isFinished()) {
 592              		.loc 1 82 29 is_stmt 1
 593              		.cfi_startproc
 594              	.LVL42:
  83:src/TCB.cpp   ****         Sem* sem = Sem::createSem(0);
 595              		.loc 1 83 5
 596              	.LBB49:
 597              	.LBB50:
 598              	.LBB51:
  75:src/../h/TCB.h ****     void setState(STATE value) { state = value; }
 599              		.loc 2 75 31
  75:src/../h/TCB.h ****     void setState(STATE value) { state = value; }
 600              		.loc 2 75 38 is_stmt 0
 601 036c 83A78503 		lw	a5,56(a1)
 602              	.LVL43:
 603              	.LBE51:
 604              	.LBE50:
  83:src/TCB.cpp   ****         Sem* sem = Sem::createSem(0);
 605              		.loc 1 83 5
 606 0370 63940700 		bnez	a5,.L34
 607 0374 67800000 		ret
 608              	.L34:
 609              	.LBE49:
  82:src/TCB.cpp   ****     if(!thread->isFinished()) {
 610              		.loc 1 82 29
 611 0378 130101FE 		addi	sp,sp,-32
 612              		.cfi_def_cfa_offset 32
 613 037c 233C1100 		sd	ra,24(sp)
 614 0380 23388100 		sd	s0,16(sp)
 615 0384 23349100 		sd	s1,8(sp)
 616 0388 23302101 		sd	s2,0(sp)
 617              		.cfi_offset 1, -8
 618              		.cfi_offset 8, -16
 619              		.cfi_offset 9, -24
 620              		.cfi_offset 18, -32
 621 038c 13040102 		addi	s0,sp,32
 622              		.cfi_def_cfa 8, 0
 623 0390 93840500 		mv	s1,a1
 624              	.LBB57:
 625              	.LBB52:
  84:src/TCB.cpp   **** 
 626              		.loc 1 84 9 is_stmt 1
 627              	.LVL44:
GAS LISTING /tmp/ccfVn9hx.s 			page 17


 628              	.LBB53:
 629              	.LBB54:
 630              		.file 3 "src/../h/Sem.h"
   1:src/../h/Sem.h **** //
   2:src/../h/Sem.h **** // Created by os on 7/18/23.
   3:src/../h/Sem.h **** //
   4:src/../h/Sem.h **** 
   5:src/../h/Sem.h **** #ifndef PROJECT_BASE_SEM_H
   6:src/../h/Sem.h **** #define PROJECT_BASE_SEM_H
   7:src/../h/Sem.h **** 
   8:src/../h/Sem.h **** #include "TCB.h"
   9:src/../h/Sem.h **** 
  10:src/../h/Sem.h **** class Sem {
  11:src/../h/Sem.h **** private:
  12:src/../h/Sem.h ****     Sem (int initValue=1) : val(initValue) {
  13:src/../h/Sem.h ****         head = tail = 0;
  14:src/../h/Sem.h ****     }
  15:src/../h/Sem.h **** 
  16:src/../h/Sem.h ****     ~Sem();
  17:src/../h/Sem.h ****     void wait ();
  18:src/../h/Sem.h ****     void signal ();
  19:src/../h/Sem.h ****     void block ();
  20:src/../h/Sem.h ****     void deblock ();
  21:src/../h/Sem.h **** 
  22:src/../h/Sem.h ****     void put(TCB* data);
  23:src/../h/Sem.h ****     TCB* get();
  24:src/../h/Sem.h **** 
  25:src/../h/Sem.h ****     static Sem* createSem(int value){
  26:src/../h/Sem.h ****         return new Sem(value);
 631              		.loc 3 26 9
 632              		.loc 3 26 29 is_stmt 0
 633 0394 13058001 		li	a0,24
 634              	.LVL45:
 635 0398 97000000 		call	_ZN3SemnwEm@plt
 635      E7800000 
 636              	.LVL46:
 637 03a0 13090500 		mv	s2,a0
 638              	.LVL47:
 639              	.LBB55:
 640              	.LBB56:
  12:src/../h/Sem.h ****         head = tail = 0;
 641              		.loc 3 12 42
 642 03a4 23280500 		sw	zero,16(a0)
  13:src/../h/Sem.h ****     }
 643              		.loc 3 13 9 is_stmt 1
  13:src/../h/Sem.h ****     }
 644              		.loc 3 13 21 is_stmt 0
 645 03a8 23340500 		sd	zero,8(a0)
  13:src/../h/Sem.h ****     }
 646              		.loc 3 13 14
 647 03ac 23300500 		sd	zero,0(a0)
 648              	.LVL48:
 649              	.LBE56:
 650              	.LBE55:
 651              	.LBE54:
 652              	.LBE53:
  86:src/TCB.cpp   ****         sem->wait();
GAS LISTING /tmp/ccfVn9hx.s 			page 18


 653              		.loc 1 86 9 is_stmt 1
  86:src/TCB.cpp   ****         sem->wait();
 654              		.loc 1 86 28 is_stmt 0
 655 03b0 93050500 		mv	a1,a0
 656 03b4 13850400 		mv	a0,s1
 657              	.LVL49:
 658 03b8 97000000 		call	_ZN3TCB11pushJoinSemEP3Sem
 658      E7800000 
 659              	.LVL50:
  87:src/TCB.cpp   ****         delete sem;
 660              		.loc 1 87 9 is_stmt 1
  87:src/TCB.cpp   ****         delete sem;
 661              		.loc 1 87 18 is_stmt 0
 662 03c0 13050900 		mv	a0,s2
 663 03c4 97000000 		call	_ZN3Sem4waitEv@plt
 663      E7800000 
 664              	.LVL51:
  88:src/TCB.cpp   ****     }
 665              		.loc 1 88 9 is_stmt 1
  88:src/TCB.cpp   ****     }
 666              		.loc 1 88 19 is_stmt 0
 667 03cc 630E0900 		beqz	s2,.L28
  88:src/TCB.cpp   ****     }
 668              		.loc 1 88 16 discriminator 1
 669 03d0 13050900 		mv	a0,s2
 670 03d4 97000000 		call	_ZN3SemD1Ev@plt
 670      E7800000 
 671              	.LVL52:
 672 03dc 13050900 		mv	a0,s2
 673 03e0 97000000 		call	_ZN3SemdlEPv@plt
 673      E7800000 
 674              	.LVL53:
 675              	.L28:
 676              	.LBE52:
 677              	.LBE57:
  90:src/TCB.cpp   **** 
 678              		.loc 1 90 1
 679 03e8 83308101 		ld	ra,24(sp)
 680              		.cfi_restore 1
 681 03ec 03340101 		ld	s0,16(sp)
 682              		.cfi_restore 8
 683              		.cfi_def_cfa 2, 32
 684 03f0 83348100 		ld	s1,8(sp)
 685              		.cfi_restore 9
 686              	.LVL54:
 687 03f4 03390100 		ld	s2,0(sp)
 688              		.cfi_restore 18
 689              	.LVL55:
 690 03f8 13010102 		addi	sp,sp,32
 691              		.cfi_def_cfa_offset 0
 692 03fc 67800000 		jr	ra
 693              		.cfi_endproc
 694              	.LFE42:
 696              		.align	2
 697              		.globl	_ZN3TCB4NodedlEPv
 699              	_ZN3TCB4NodedlEPv:
 700              	.LFB47:
GAS LISTING /tmp/ccfVn9hx.s 			page 19


 107:src/TCB.cpp   **** 
 108:src/TCB.cpp   **** void TCB::Node::operator delete(void *ptr) {
 701              		.loc 1 108 44 is_stmt 1
 702              		.cfi_startproc
 703              	.LVL56:
 704 0400 130101FF 		addi	sp,sp,-16
 705              		.cfi_def_cfa_offset 16
 706 0404 23341100 		sd	ra,8(sp)
 707 0408 23308100 		sd	s0,0(sp)
 708              		.cfi_offset 1, -8
 709              		.cfi_offset 8, -16
 710 040c 13040101 		addi	s0,sp,16
 711              		.cfi_def_cfa 8, 0
 109:src/TCB.cpp   ****     MemoryAllocator::mem_free(ptr);
 712              		.loc 1 109 5
 713              		.loc 1 109 30 is_stmt 0
 714 0410 97000000 		call	_ZN15MemoryAllocator8mem_freeEPv@plt
 714      E7800000 
 715              	.LVL57:
 110:src/TCB.cpp   **** }
 716              		.loc 1 110 1
 717 0418 83308100 		ld	ra,8(sp)
 718              		.cfi_restore 1
 719 041c 03340100 		ld	s0,0(sp)
 720              		.cfi_restore 8
 721              		.cfi_def_cfa 2, 16
 722 0420 13010101 		addi	sp,sp,16
 723              		.cfi_def_cfa_offset 0
 724 0424 67800000 		jr	ra
 725              		.cfi_endproc
 726              	.LFE47:
 728              		.align	2
 729              		.globl	_ZN3TCB17notifayAllJoinSemEv
 731              	_ZN3TCB17notifayAllJoinSemEv:
 732              	.LFB41:
  73:src/TCB.cpp   ****     while(head != nullptr){
 733              		.loc 1 73 31 is_stmt 1
 734              		.cfi_startproc
 735              	.LVL58:
 736 0428 130101FE 		addi	sp,sp,-32
 737              		.cfi_def_cfa_offset 32
 738 042c 233C1100 		sd	ra,24(sp)
 739 0430 23388100 		sd	s0,16(sp)
 740 0434 23349100 		sd	s1,8(sp)
 741 0438 23302101 		sd	s2,0(sp)
 742              		.cfi_offset 1, -8
 743              		.cfi_offset 8, -16
 744              		.cfi_offset 9, -24
 745              		.cfi_offset 18, -32
 746 043c 13040102 		addi	s0,sp,32
 747              		.cfi_def_cfa 8, 0
 748 0440 13090500 		mv	s2,a0
 749              	.LVL59:
 750              	.L39:
  74:src/TCB.cpp   ****         Node* prev = head;
 751              		.loc 1 74 5
  74:src/TCB.cpp   ****         Node* prev = head;
GAS LISTING /tmp/ccfVn9hx.s 			page 20


 752              		.loc 1 74 16
  74:src/TCB.cpp   ****         Node* prev = head;
 753              		.loc 1 74 11 is_stmt 0
 754 0444 83340904 		ld	s1,64(s2)
  74:src/TCB.cpp   ****         Node* prev = head;
 755              		.loc 1 74 16
 756 0448 63880402 		beqz	s1,.L37
 757              	.LBB58:
  75:src/TCB.cpp   ****         head->data->signal();
 758              		.loc 1 75 9 is_stmt 1
 759              	.LVL60:
  76:src/TCB.cpp   ****         head = head->next;
 760              		.loc 1 76 9
  76:src/TCB.cpp   ****         head = head->next;
 761              		.loc 1 76 27 is_stmt 0
 762 044c 03B50400 		ld	a0,0(s1)
 763 0450 97000000 		call	_ZN3Sem6signalEv@plt
 763      E7800000 
 764              	.LVL61:
  77:src/TCB.cpp   ****         delete prev;
 765              		.loc 1 77 9 is_stmt 1
  77:src/TCB.cpp   ****         delete prev;
 766              		.loc 1 77 16 is_stmt 0
 767 0458 83370904 		ld	a5,64(s2)
  77:src/TCB.cpp   ****         delete prev;
 768              		.loc 1 77 22
 769 045c 83B78700 		ld	a5,8(a5)
  77:src/TCB.cpp   ****         delete prev;
 770              		.loc 1 77 14
 771 0460 2330F904 		sd	a5,64(s2)
  78:src/TCB.cpp   ****     }
 772              		.loc 1 78 9 is_stmt 1
  78:src/TCB.cpp   ****     }
 773              		.loc 1 78 20 is_stmt 0
 774 0464 E38004FE 		beqz	s1,.L39
  78:src/TCB.cpp   ****     }
 775              		.loc 1 78 16 discriminator 1
 776 0468 13850400 		mv	a0,s1
 777 046c 97000000 		call	_ZN3TCB4NodedlEPv
 777      E7800000 
 778              	.LVL62:
 779 0474 6FF01FFD 		j	.L39
 780              	.LVL63:
 781              	.L37:
 782              	.LBE58:
  80:src/TCB.cpp   **** 
 783              		.loc 1 80 1
 784 0478 83308101 		ld	ra,24(sp)
 785              		.cfi_restore 1
 786 047c 03340101 		ld	s0,16(sp)
 787              		.cfi_restore 8
 788              		.cfi_def_cfa 2, 32
 789 0480 83348100 		ld	s1,8(sp)
 790              		.cfi_restore 9
 791 0484 03390100 		ld	s2,0(sp)
 792              		.cfi_restore 18
 793              	.LVL64:
GAS LISTING /tmp/ccfVn9hx.s 			page 21


 794 0488 13010102 		addi	sp,sp,32
 795              		.cfi_def_cfa_offset 0
 796 048c 67800000 		jr	ra
 797              		.cfi_endproc
 798              	.LFE41:
 800              		.align	2
 801              		.globl	_ZN3TCB4exitEv
 803              	_ZN3TCB4exitEv:
 804              	.LFB39:
  53:src/TCB.cpp   ****     if(running == nullptr) return -1;
 805              		.loc 1 53 17 is_stmt 1
 806              		.cfi_startproc
  54:src/TCB.cpp   ****     running->setState(STATE::FINISHED);
 807              		.loc 1 54 5
  54:src/TCB.cpp   ****     running->setState(STATE::FINISHED);
 808              		.loc 1 54 16 is_stmt 0
 809 0490 17050000 		ld	a0,.LANCHOR0
 809      03350500 
  54:src/TCB.cpp   ****     running->setState(STATE::FINISHED);
 810              		.loc 1 54 5
 811 0498 630E0502 		beqz	a0,.L44
  53:src/TCB.cpp   ****     if(running == nullptr) return -1;
 812              		.loc 1 53 17
 813 049c 130101FF 		addi	sp,sp,-16
 814              		.cfi_def_cfa_offset 16
 815 04a0 23341100 		sd	ra,8(sp)
 816 04a4 23308100 		sd	s0,0(sp)
 817              		.cfi_offset 1, -8
 818              		.cfi_offset 8, -16
 819 04a8 13040101 		addi	s0,sp,16
 820              		.cfi_def_cfa 8, 0
  55:src/TCB.cpp   ****     //running->stack -= DEFAULT_STACK_SIZE + 1;
 821              		.loc 1 55 5 is_stmt 1
 822              	.LVL65:
 823              	.LBB59:
 824              	.LBB60:
  76:src/../h/TCB.h ****     uint64 getTimeSlice() const { return timeSlice; }
 825              		.loc 2 76 34
  76:src/../h/TCB.h ****     uint64 getTimeSlice() const { return timeSlice; }
 826              		.loc 2 76 40 is_stmt 0
 827 04ac 232C0502 		sw	zero,56(a0)
 828              	.LVL66:
 829              	.LBE60:
 830              	.LBE59:
  60:src/TCB.cpp   ****     dispatch();
 831              		.loc 1 60 5 is_stmt 1
  60:src/TCB.cpp   ****     dispatch();
 832              		.loc 1 60 31 is_stmt 0
 833 04b0 97000000 		call	_ZN3TCB17notifayAllJoinSemEv
 833      E7800000 
 834              	.LVL67:
  61:src/TCB.cpp   ****     return 0;
 835              		.loc 1 61 5 is_stmt 1
  61:src/TCB.cpp   ****     return 0;
 836              		.loc 1 61 13 is_stmt 0
 837 04b8 97000000 		call	_ZN3TCB8dispatchEv
 837      E7800000 
GAS LISTING /tmp/ccfVn9hx.s 			page 22


 838              	.LVL68:
  62:src/TCB.cpp   **** }
 839              		.loc 1 62 5 is_stmt 1
  62:src/TCB.cpp   **** }
 840              		.loc 1 62 12 is_stmt 0
 841 04c0 13050000 		li	a0,0
  63:src/TCB.cpp   **** 
 842              		.loc 1 63 1
 843 04c4 83308100 		ld	ra,8(sp)
 844              		.cfi_restore 1
 845 04c8 03340100 		ld	s0,0(sp)
 846              		.cfi_restore 8
 847              		.cfi_def_cfa 2, 16
 848 04cc 13010101 		addi	sp,sp,16
 849              		.cfi_def_cfa_offset 0
 850 04d0 67800000 		jr	ra
 851              	.L44:
  54:src/TCB.cpp   ****     running->setState(STATE::FINISHED);
 852              		.loc 1 54 36
 853 04d4 1305F0FF 		li	a0,-1
  63:src/TCB.cpp   **** 
 854              		.loc 1 63 1
 855 04d8 67800000 		ret
 856              		.cfi_endproc
 857              	.LFE39:
 859              		.globl	_ZN3TCB7runningE
 860              		.bss
 861              		.align	3
 862              		.set	.LANCHOR0,. + 0
 865              	_ZN3TCB7runningE:
 866 0000 00000000 		.zero	8
 866      00000000 
 867              		.text
 868              	.Letext0:
 869              		.file 4 "src/../h/../lib/hw.h"
 870              		.file 5 "src/../h/MemoryAllocator.h"
 871              		.file 6 "src/../h/Scheduler.h"
 872              		.file 7 "src/../h/Riscv.h"
 873              		.file 8 "src/../h/syscall_c.hpp"
 4865              		.align	3
 4868              	DW.ref.__gxx_personality_v0:
 4869 0000 00000000 		.dword	__gxx_personality_v0
 4869      00000000 
 4870              		.ident	"GCC: (Ubuntu 9.4.0-1ubuntu1~20.04) 9.4.0"
 4871              		.section	.note.GNU-stack,"",@progbits
GAS LISTING /tmp/ccfVn9hx.s 			page 23

