GAS LISTING /tmp/ccq2Ny1n.s 			page 1


   1              		.file	"ThreadSleep_C_API_test.cpp"
   2              		.option pic
   3              		.option norelax
   4              		.text
   5              	.Ltext0:
   6              		.section	.rodata.str1.8,"aMS",@progbits,1
   7              		.align	3
   8              	.LC0:
   9 0000 48656C6C 		.string	"Hello "
   9      6F2000
  10 0007 00       		.align	3
  11              	.LC1:
  12 0008 20210A00 		.string	" !\n"
  13              		.text
  14              		.align	2
  16              	_ZL9sleepyRunPv:
  17              	.LFB35:
  18              		.file 1 "test/ThreadSleep_C_API_test.cpp"
   1:test/ThreadSleep_C_API_test.cpp **** #include "../h/syscall_c.hpp"
   2:test/ThreadSleep_C_API_test.cpp **** 
   3:test/ThreadSleep_C_API_test.cpp **** #include "printing.hpp"
   4:test/ThreadSleep_C_API_test.cpp **** 
   5:test/ThreadSleep_C_API_test.cpp **** static volatile bool finished[2];
   6:test/ThreadSleep_C_API_test.cpp **** 
   7:test/ThreadSleep_C_API_test.cpp **** static void sleepyRun(void *arg) {
  19              		.loc 1 7 34
  20              		.cfi_startproc
  21              	.LVL0:
  22 0000 130101FE 		addi	sp,sp,-32
  23              		.cfi_def_cfa_offset 32
  24 0004 233C1100 		sd	ra,24(sp)
  25 0008 23388100 		sd	s0,16(sp)
  26 000c 23349100 		sd	s1,8(sp)
  27 0010 23302101 		sd	s2,0(sp)
  28              		.cfi_offset 1, -8
  29              		.cfi_offset 8, -16
  30              		.cfi_offset 9, -24
  31              		.cfi_offset 18, -32
  32 0014 13040102 		addi	s0,sp,32
  33              		.cfi_def_cfa 8, 0
   8:test/ThreadSleep_C_API_test.cpp ****     time_t sleep_time = *((time_t *) arg);
  34              		.loc 1 8 5
  35              		.loc 1 8 12 is_stmt 0
  36 0018 03390500 		ld	s2,0(a0)
  37              	.LVL1:
   9:test/ThreadSleep_C_API_test.cpp ****     int i = 6;
  38              		.loc 1 9 5 is_stmt 1
  39              		.loc 1 9 9 is_stmt 0
  40 001c 93046000 		li	s1,6
  41              	.LVL2:
  42              	.L3:
  10:test/ThreadSleep_C_API_test.cpp ****     while (--i > 0) {
  43              		.loc 1 10 5 is_stmt 1
  44              		.loc 1 10 16
  45 0020 9B84F4FF 		addiw	s1,s1,-1
  46              	.LVL3:
  47 0024 63549004 		blez	s1,.L2
GAS LISTING /tmp/ccq2Ny1n.s 			page 2


  11:test/ThreadSleep_C_API_test.cpp **** 
  12:test/ThreadSleep_C_API_test.cpp ****         printString("Hello ");
  48              		.loc 1 12 9
  49              		.loc 1 12 20 is_stmt 0
  50 0028 17050000 		lla	a0,.LC0
  50      13050500 
  51 0030 97000000 		call	_Z11printStringPKc@plt
  51      E7800000 
  52              	.LVL4:
  13:test/ThreadSleep_C_API_test.cpp ****         printInt(sleep_time);
  53              		.loc 1 13 9 is_stmt 1
  54              		.loc 1 13 17 is_stmt 0
  55 0038 13060000 		li	a2,0
  56 003c 9305A000 		li	a1,10
  57 0040 1B050900 		sext.w	a0,s2
  58 0044 97000000 		call	_Z8printIntiii@plt
  58      E7800000 
  59              	.LVL5:
  14:test/ThreadSleep_C_API_test.cpp ****         printString(" !\n");
  60              		.loc 1 14 9 is_stmt 1
  61              		.loc 1 14 20 is_stmt 0
  62 004c 17050000 		lla	a0,.LC1
  62      13050500 
  63 0054 97000000 		call	_Z11printStringPKc@plt
  63      E7800000 
  64              	.LVL6:
  15:test/ThreadSleep_C_API_test.cpp ****         time_sleep(sleep_time);
  65              		.loc 1 15 9 is_stmt 1
  66              		.loc 1 15 19 is_stmt 0
  67 005c 13050900 		mv	a0,s2
  68 0060 97000000 		call	_Z10time_sleepm@plt
  68      E7800000 
  69              	.LVL7:
  10:test/ThreadSleep_C_API_test.cpp **** 
  70              		.loc 1 10 5
  71 0068 6FF09FFB 		j	.L3
  72              	.L2:
  16:test/ThreadSleep_C_API_test.cpp ****     }
  17:test/ThreadSleep_C_API_test.cpp ****     finished[sleep_time/10-1] = true;
  73              		.loc 1 17 5 is_stmt 1
  74              		.loc 1 17 24 is_stmt 0
  75 006c 9307A000 		li	a5,10
  76 0070 3359F902 		divu	s2,s2,a5
  77              	.LVL8:
  78              		.loc 1 17 27
  79 0074 1309F9FF 		addi	s2,s2,-1
  80              		.loc 1 17 31
  81 0078 97070000 		lla	a5,.LANCHOR0
  81      93870700 
  82 0080 33892701 		add	s2,a5,s2
  83 0084 93071000 		li	a5,1
  84 0088 2300F900 		sb	a5,0(s2)
  18:test/ThreadSleep_C_API_test.cpp **** }
  85              		.loc 1 18 1
  86 008c 83308101 		ld	ra,24(sp)
  87              		.cfi_restore 1
  88 0090 03340101 		ld	s0,16(sp)
GAS LISTING /tmp/ccq2Ny1n.s 			page 3


  89              		.cfi_restore 8
  90              		.cfi_def_cfa 2, 32
  91 0094 83348100 		ld	s1,8(sp)
  92              		.cfi_restore 9
  93 0098 03390100 		ld	s2,0(sp)
  94              		.cfi_restore 18
  95 009c 13010102 		addi	sp,sp,32
  96              		.cfi_def_cfa_offset 0
  97 00a0 67800000 		jr	ra
  98              		.cfi_endproc
  99              	.LFE35:
 101              		.align	2
 102              		.globl	_Z12testSleepingv
 104              	_Z12testSleepingv:
 105              	.LFB36:
  19:test/ThreadSleep_C_API_test.cpp **** 
  20:test/ThreadSleep_C_API_test.cpp **** void testSleeping() {
 106              		.loc 1 20 21 is_stmt 1
 107              		.cfi_startproc
 108 00a4 130101FC 		addi	sp,sp,-64
 109              		.cfi_def_cfa_offset 64
 110 00a8 233C1102 		sd	ra,56(sp)
 111 00ac 23388102 		sd	s0,48(sp)
 112 00b0 23349102 		sd	s1,40(sp)
 113              		.cfi_offset 1, -8
 114              		.cfi_offset 8, -16
 115              		.cfi_offset 9, -24
 116 00b4 13040104 		addi	s0,sp,64
 117              		.cfi_def_cfa 8, 0
  21:test/ThreadSleep_C_API_test.cpp ****     const int sleepy_thread_count = 2;
 118              		.loc 1 21 5
 119              	.LVL9:
  22:test/ThreadSleep_C_API_test.cpp ****     time_t sleep_times[sleepy_thread_count] = {10, 20};
 120              		.loc 1 22 5
 121              		.loc 1 22 12 is_stmt 0
 122 00b8 9307A000 		li	a5,10
 123 00bc 2338F4FC 		sd	a5,-48(s0)
 124 00c0 93074001 		li	a5,20
 125 00c4 233CF4FC 		sd	a5,-40(s0)
  23:test/ThreadSleep_C_API_test.cpp ****     thread_t sleepyThread[sleepy_thread_count];
 126              		.loc 1 23 5 is_stmt 1
  24:test/ThreadSleep_C_API_test.cpp **** 
  25:test/ThreadSleep_C_API_test.cpp ****     for (int i = 0; i < sleepy_thread_count; i++) {
 127              		.loc 1 25 5
 128              	.LVL10:
 129              	.LBB2:
 130              		.loc 1 25 14 is_stmt 0
 131 00c8 93040000 		li	s1,0
 132 00cc 6F00C002 		j	.L7
 133              	.LVL11:
 134              	.L10:
  26:test/ThreadSleep_C_API_test.cpp ****         thread_create(&sleepyThread[i], sleepyRun, sleep_times + i);
 135              		.loc 1 26 9 is_stmt 1
 136              		.loc 1 26 64 is_stmt 0
 137 00d0 93973400 		slli	a5,s1,3
 138              		.loc 1 26 22
 139 00d4 130604FD 		addi	a2,s0,-48
GAS LISTING /tmp/ccq2Ny1n.s 			page 4


 140 00d8 3306F600 		add	a2,a2,a5
 141 00dc 97050000 		lla	a1,_ZL9sleepyRunPv
 141      93850500 
 142 00e4 130504FC 		addi	a0,s0,-64
 143 00e8 3305F500 		add	a0,a0,a5
 144 00ec 97000000 		call	_Z13thread_createPP3TCBPFvPvES2_@plt
 144      E7800000 
 145              	.LVL12:
  25:test/ThreadSleep_C_API_test.cpp ****         thread_create(&sleepyThread[i], sleepyRun, sleep_times + i);
 146              		.loc 1 25 5 is_stmt 1
 147 00f4 9B841400 		addiw	s1,s1,1
 148              	.LVL13:
 149              	.L7:
  25:test/ThreadSleep_C_API_test.cpp ****         thread_create(&sleepyThread[i], sleepyRun, sleep_times + i);
 150              		.loc 1 25 23 discriminator 1
 151 00f8 93071000 		li	a5,1
 152 00fc E3DA97FC 		ble	s1,a5,.L10
 153              	.L8:
 154              	.LBE2:
  27:test/ThreadSleep_C_API_test.cpp ****     }
  28:test/ThreadSleep_C_API_test.cpp ****     while (!(finished[0] && finished[1])) {}
 155              		.loc 1 28 5
 156              		.loc 1 28 12
 157              		.loc 1 28 24 is_stmt 0
 158 0100 97070000 		lbu	a5,.LANCHOR0
 158      83C70700 
 159              		.loc 1 28 12
 160 0108 E38C07FE 		beqz	a5,.L8
 161              		.loc 1 28 39 discriminator 2
 162 010c 97070000 		lbu	a5,.LANCHOR0+1
 162      83C70700 
 163              		.loc 1 28 12 discriminator 2
 164 0114 E38607FE 		beqz	a5,.L8
  29:test/ThreadSleep_C_API_test.cpp **** }
 165              		.loc 1 29 1
 166 0118 83308103 		ld	ra,56(sp)
 167              		.cfi_restore 1
 168 011c 03340103 		ld	s0,48(sp)
 169              		.cfi_restore 8
 170              		.cfi_def_cfa 2, 64
 171 0120 83348102 		ld	s1,40(sp)
 172              		.cfi_restore 9
 173              	.LVL14:
 174 0124 13010104 		addi	sp,sp,64
 175              		.cfi_def_cfa_offset 0
 176 0128 67800000 		jr	ra
 177              		.cfi_endproc
 178              	.LFE36:
 180              		.bss
 181              		.align	3
 182              		.set	.LANCHOR0,. + 0
 185              	_ZL8finished:
 186 0000 0000     		.zero	2
 187              		.text
 188              	.Letext0:
 189              		.file 2 "test/../h/../lib/hw.h"
 190              		.file 3 "test/../h/TCB.h"
GAS LISTING /tmp/ccq2Ny1n.s 			page 5


 191              		.file 4 "test/../h/Sem.h"
 192              		.file 5 "test/../h/syscall_c.hpp"
 193              		.file 6 "test/printing.hpp"
GAS LISTING /tmp/ccq2Ny1n.s 			page 6


DEFINED SYMBOLS
                            *ABS*:0000000000000000 ThreadSleep_C_API_test.cpp
     /tmp/ccq2Ny1n.s:16     .text:0000000000000000 _ZL9sleepyRunPv
     /tmp/ccq2Ny1n.s:20     .text:0000000000000000 .L0 
     /tmp/ccq2Ny1n.s:22     .text:0000000000000000 .L0 
     /tmp/ccq2Ny1n.s:23     .text:0000000000000004 .L0 
     /tmp/ccq2Ny1n.s:28     .text:0000000000000014 .L0 
     /tmp/ccq2Ny1n.s:29     .text:0000000000000014 .L0 
     /tmp/ccq2Ny1n.s:30     .text:0000000000000014 .L0 
     /tmp/ccq2Ny1n.s:31     .text:0000000000000014 .L0 
     /tmp/ccq2Ny1n.s:33     .text:0000000000000018 .L0 
     /tmp/ccq2Ny1n.s:35     .text:0000000000000018 .L0 
     /tmp/ccq2Ny1n.s:36     .text:0000000000000018 .L0 
     /tmp/ccq2Ny1n.s:39     .text:000000000000001c .L0 
     /tmp/ccq2Ny1n.s:40     .text:000000000000001c .L0 
     /tmp/ccq2Ny1n.s:44     .text:0000000000000020 .L0 
     /tmp/ccq2Ny1n.s:45     .text:0000000000000020 .L0 
     /tmp/ccq2Ny1n.s:49     .text:0000000000000028 .L0 
     /tmp/ccq2Ny1n.s:50     .text:0000000000000028 .L0 
     /tmp/ccq2Ny1n.s:54     .text:0000000000000038 .L0 
     /tmp/ccq2Ny1n.s:55     .text:0000000000000038 .L0 
     /tmp/ccq2Ny1n.s:61     .text:000000000000004c .L0 
     /tmp/ccq2Ny1n.s:62     .text:000000000000004c .L0 
     /tmp/ccq2Ny1n.s:66     .text:000000000000005c .L0 
     /tmp/ccq2Ny1n.s:67     .text:000000000000005c .L0 
     /tmp/ccq2Ny1n.s:71     .text:0000000000000068 .L0 
     /tmp/ccq2Ny1n.s:74     .text:000000000000006c .L0 
     /tmp/ccq2Ny1n.s:75     .text:000000000000006c .L0 
     /tmp/ccq2Ny1n.s:79     .text:0000000000000074 .L0 
     /tmp/ccq2Ny1n.s:81     .text:0000000000000078 .L0 
     /tmp/ccq2Ny1n.s:86     .text:000000000000008c .L0 
     /tmp/ccq2Ny1n.s:87     .text:0000000000000090 .L0 
     /tmp/ccq2Ny1n.s:89     .text:0000000000000094 .L0 
     /tmp/ccq2Ny1n.s:90     .text:0000000000000094 .L0 
     /tmp/ccq2Ny1n.s:92     .text:0000000000000098 .L0 
     /tmp/ccq2Ny1n.s:94     .text:000000000000009c .L0 
     /tmp/ccq2Ny1n.s:96     .text:00000000000000a0 .L0 
     /tmp/ccq2Ny1n.s:98     .text:00000000000000a4 .L0 
     /tmp/ccq2Ny1n.s:104    .text:00000000000000a4 _Z12testSleepingv
     /tmp/ccq2Ny1n.s:107    .text:00000000000000a4 .L0 
     /tmp/ccq2Ny1n.s:108    .text:00000000000000a4 .L0 
     /tmp/ccq2Ny1n.s:109    .text:00000000000000a8 .L0 
     /tmp/ccq2Ny1n.s:113    .text:00000000000000b4 .L0 
     /tmp/ccq2Ny1n.s:114    .text:00000000000000b4 .L0 
     /tmp/ccq2Ny1n.s:115    .text:00000000000000b4 .L0 
     /tmp/ccq2Ny1n.s:117    .text:00000000000000b8 .L0 
     /tmp/ccq2Ny1n.s:120    .text:00000000000000b8 .L0 
     /tmp/ccq2Ny1n.s:121    .text:00000000000000b8 .L0 
     /tmp/ccq2Ny1n.s:122    .text:00000000000000b8 .L0 
     /tmp/ccq2Ny1n.s:127    .text:00000000000000c8 .L0 
     /tmp/ccq2Ny1n.s:130    .text:00000000000000c8 .L0 
     /tmp/ccq2Ny1n.s:131    .text:00000000000000c8 .L0 
     /tmp/ccq2Ny1n.s:136    .text:00000000000000d0 .L0 
     /tmp/ccq2Ny1n.s:137    .text:00000000000000d0 .L0 
     /tmp/ccq2Ny1n.s:139    .text:00000000000000d4 .L0 
     /tmp/ccq2Ny1n.s:147    .text:00000000000000f4 .L0 
     /tmp/ccq2Ny1n.s:151    .text:00000000000000f8 .L0 
GAS LISTING /tmp/ccq2Ny1n.s 			page 7


     /tmp/ccq2Ny1n.s:156    .text:0000000000000100 .L0 
     /tmp/ccq2Ny1n.s:157    .text:0000000000000100 .L0 
     /tmp/ccq2Ny1n.s:158    .text:0000000000000100 .L0 
     /tmp/ccq2Ny1n.s:160    .text:0000000000000108 .L0 
     /tmp/ccq2Ny1n.s:162    .text:000000000000010c .L0 
     /tmp/ccq2Ny1n.s:164    .text:0000000000000114 .L0 
     /tmp/ccq2Ny1n.s:166    .text:0000000000000118 .L0 
     /tmp/ccq2Ny1n.s:167    .text:000000000000011c .L0 
     /tmp/ccq2Ny1n.s:169    .text:0000000000000120 .L0 
     /tmp/ccq2Ny1n.s:170    .text:0000000000000120 .L0 
     /tmp/ccq2Ny1n.s:172    .text:0000000000000124 .L0 
     /tmp/ccq2Ny1n.s:175    .text:0000000000000128 .L0 
     /tmp/ccq2Ny1n.s:177    .text:000000000000012c .L0 
     /tmp/ccq2Ny1n.s:182    .bss:0000000000000000 .LANCHOR0
     /tmp/ccq2Ny1n.s:185    .bss:0000000000000000 _ZL8finished
     /tmp/ccq2Ny1n.s:194    .text:000000000000012c .L0 
     /tmp/ccq2Ny1n.s:8      .rodata.str1.8:0000000000000000 .LC0
     /tmp/ccq2Ny1n.s:50     .text:0000000000000028 .L0 
     /tmp/ccq2Ny1n.s:11     .rodata.str1.8:0000000000000008 .LC1
     /tmp/ccq2Ny1n.s:62     .text:000000000000004c .L0 
     /tmp/ccq2Ny1n.s:81     .text:0000000000000078 .L0 
     /tmp/ccq2Ny1n.s:141    .text:00000000000000dc .L0 
     /tmp/ccq2Ny1n.s:158    .text:0000000000000100 .L0 
     /tmp/ccq2Ny1n.s:162    .text:000000000000010c .L0 
     /tmp/ccq2Ny1n.s:72     .text:000000000000006c .L2
     /tmp/ccq2Ny1n.s:42     .text:0000000000000020 .L3
     /tmp/ccq2Ny1n.s:149    .text:00000000000000f8 .L7
     /tmp/ccq2Ny1n.s:134    .text:00000000000000d0 .L10
     /tmp/ccq2Ny1n.s:153    .text:0000000000000100 .L8
     /tmp/ccq2Ny1n.s:1213   .debug_abbrev:0000000000000000 .Ldebug_abbrev0
     /tmp/ccq2Ny1n.s:2258   .debug_str:000000000000056b .LASF108
     /tmp/ccq2Ny1n.s:2170   .debug_str:0000000000000313 .LASF109
     /tmp/ccq2Ny1n.s:2140   .debug_str:0000000000000239 .LASF110
     /tmp/ccq2Ny1n.s:5      .text:0000000000000000 .Ltext0
     /tmp/ccq2Ny1n.s:188    .text:000000000000012c .Letext0
     /tmp/ccq2Ny1n.s:2060   .debug_line:0000000000000000 .Ldebug_line0
     /tmp/ccq2Ny1n.s:2148   .debug_str:0000000000000270 .LASF0
     /tmp/ccq2Ny1n.s:2162   .debug_str:00000000000002d5 .LASF1
     /tmp/ccq2Ny1n.s:2210   .debug_str:0000000000000447 .LASF2
     /tmp/ccq2Ny1n.s:2216   .debug_str:0000000000000476 .LASF4
     /tmp/ccq2Ny1n.s:2150   .debug_str:000000000000027d .LASF3
     /tmp/ccq2Ny1n.s:2074   .debug_str:000000000000005d .LASF5
     /tmp/ccq2Ny1n.s:2200   .debug_str:00000000000003fb .LASF6
     /tmp/ccq2Ny1n.s:2190   .debug_str:00000000000003ad .LASF7
     /tmp/ccq2Ny1n.s:2156   .debug_str:00000000000002ab .LASF8
     /tmp/ccq2Ny1n.s:2134   .debug_str:00000000000001fc .LASF9
     /tmp/ccq2Ny1n.s:2144   .debug_str:000000000000025c .LASF10
     /tmp/ccq2Ny1n.s:2090   .debug_str:00000000000000b9 .LASF11
     /tmp/ccq2Ny1n.s:2128   .debug_str:00000000000001ba .LASF12
     /tmp/ccq2Ny1n.s:2102   .debug_str:0000000000000109 .LASF13
     /tmp/ccq2Ny1n.s:2088   .debug_str:00000000000000a9 .LASF14
     /tmp/ccq2Ny1n.s:2242   .debug_str:0000000000000516 .LASF15
     /tmp/ccq2Ny1n.s:2120   .debug_str:0000000000000178 .LASF16
     /tmp/ccq2Ny1n.s:2232   .debug_str:00000000000004cc .LASF17
     /tmp/ccq2Ny1n.s:2174   .debug_str:0000000000000347 .LASF18
     /tmp/ccq2Ny1n.s:2262   .debug_str:000000000000063d .LASF111
     /tmp/ccq2Ny1n.s:2080   .debug_str:0000000000000080 .LASF19
GAS LISTING /tmp/ccq2Ny1n.s 			page 8


     /tmp/ccq2Ny1n.s:2086   .debug_str:00000000000000a3 .LASF20
     /tmp/ccq2Ny1n.s:2062   .debug_str:0000000000000000 .LASF21
     /tmp/ccq2Ny1n.s:2094   .debug_str:00000000000000cd .LASF22
     /tmp/ccq2Ny1n.s:2142   .debug_str:0000000000000257 .LASF23
     /tmp/ccq2Ny1n.s:2246   .debug_str:0000000000000529 .LASF24
     /tmp/ccq2Ny1n.s:2108   .debug_str:000000000000013e .LASF25
     /tmp/ccq2Ny1n.s:2160   .debug_str:00000000000002d0 .LASF26
     /tmp/ccq2Ny1n.s:2092   .debug_str:00000000000000c8 .LASF27
     /tmp/ccq2Ny1n.s:2298   .debug_str:0000000000000735 .LASF29
     /tmp/ccq2Ny1n.s:2194   .debug_str:00000000000003c9 .LASF33
     /tmp/ccq2Ny1n.s:2068   .debug_str:0000000000000019 .LASF32
     /tmp/ccq2Ny1n.s:2158   .debug_str:00000000000002be .LASF68
     /tmp/ccq2Ny1n.s:2218   .debug_str:000000000000047d .LASF28
     /tmp/ccq2Ny1n.s:2072   .debug_str:0000000000000051 .LASF30
     /tmp/ccq2Ny1n.s:2188   .debug_str:00000000000003a1 .LASF31
     /tmp/ccq2Ny1n.s:2184   .debug_str:000000000000038f .LASF34
     /tmp/ccq2Ny1n.s:2294   .debug_str:0000000000000714 .LASF73
     /tmp/ccq2Ny1n.s:2186   .debug_str:000000000000039c .LASF112
     /tmp/ccq2Ny1n.s:2280   .debug_str:00000000000006b5 .LASF35
     /tmp/ccq2Ny1n.s:2204   .debug_str:000000000000040f .LASF36
     /tmp/ccq2Ny1n.s:2224   .debug_str:00000000000004a2 .LASF37
     /tmp/ccq2Ny1n.s:2252   .debug_str:0000000000000541 .LASF38
     /tmp/ccq2Ny1n.s:2254   .debug_str:000000000000055e .LASF39
     /tmp/ccq2Ny1n.s:2130   .debug_str:00000000000001c9 .LASF40
     /tmp/ccq2Ny1n.s:2256   .debug_str:0000000000000563 .LASF113
     /tmp/ccq2Ny1n.s:2066   .debug_str:0000000000000014 .LASF41
     /tmp/ccq2Ny1n.s:2292   .debug_str:000000000000070e .LASF42
     /tmp/ccq2Ny1n.s:2270   .debug_str:0000000000000666 .LASF43
     /tmp/ccq2Ny1n.s:2264   .debug_str:0000000000000643 .LASF44
     /tmp/ccq2Ny1n.s:2202   .debug_str:0000000000000402 .LASF45
     /tmp/ccq2Ny1n.s:2116   .debug_str:000000000000015e .LASF46
     /tmp/ccq2Ny1n.s:2236   .debug_str:00000000000004f3 .LASF47
     /tmp/ccq2Ny1n.s:2078   .debug_str:000000000000006f .LASF48
     /tmp/ccq2Ny1n.s:2248   .debug_str:0000000000000531 .LASF49
     /tmp/ccq2Ny1n.s:2180   .debug_str:0000000000000373 .LASF50
     /tmp/ccq2Ny1n.s:2212   .debug_str:0000000000000455 .LASF51
     /tmp/ccq2Ny1n.s:2282   .debug_str:00000000000006c1 .LASF52
     /tmp/ccq2Ny1n.s:2164   .debug_str:00000000000002e8 .LASF53
     /tmp/ccq2Ny1n.s:2272   .debug_str:000000000000066e .LASF54
     /tmp/ccq2Ny1n.s:2110   .debug_str:0000000000000143 .LASF55
     /tmp/ccq2Ny1n.s:2214   .debug_str:000000000000045e .LASF56
     /tmp/ccq2Ny1n.s:2268   .debug_str:0000000000000659 .LASF57
     /tmp/ccq2Ny1n.s:2176   .debug_str:000000000000034c .LASF58
     /tmp/ccq2Ny1n.s:2100   .debug_str:00000000000000fc .LASF59
     /tmp/ccq2Ny1n.s:2274   .debug_str:0000000000000687 .LASF60
     /tmp/ccq2Ny1n.s:2240   .debug_str:0000000000000509 .LASF61
     /tmp/ccq2Ny1n.s:2132   .debug_str:00000000000001da .LASF62
     /tmp/ccq2Ny1n.s:2112   .debug_str:0000000000000150 .LASF63
     /tmp/ccq2Ny1n.s:2096   .debug_str:00000000000000d6 .LASF65
     /tmp/ccq2Ny1n.s:2076   .debug_str:0000000000000064 .LASF89
     /tmp/ccq2Ny1n.s:2104   .debug_str:0000000000000119 .LASF90
     /tmp/ccq2Ny1n.s:2226   .debug_str:00000000000004b4 .LASF114
     /tmp/ccq2Ny1n.s:2152   .debug_str:000000000000028f .LASF115
     /tmp/ccq2Ny1n.s:2082   .debug_str:0000000000000089 .LASF64
     /tmp/ccq2Ny1n.s:2166   .debug_str:00000000000002f5 .LASF66
     /tmp/ccq2Ny1n.s:2106   .debug_str:0000000000000130 .LASF67
     /tmp/ccq2Ny1n.s:2070   .debug_str:0000000000000029 .LASF69
GAS LISTING /tmp/ccq2Ny1n.s 			page 9


     /tmp/ccq2Ny1n.s:2196   .debug_str:00000000000003da .LASF70
     /tmp/ccq2Ny1n.s:2234   .debug_str:00000000000004e2 .LASF71
     /tmp/ccq2Ny1n.s:2206   .debug_str:000000000000042a .LASF72
     /tmp/ccq2Ny1n.s:2084   .debug_str:0000000000000097 .LASF74
     /tmp/ccq2Ny1n.s:2168   .debug_str:000000000000030e .LASF75
     /tmp/ccq2Ny1n.s:2064   .debug_str:0000000000000008 .LASF76
     /tmp/ccq2Ny1n.s:2114   .debug_str:0000000000000159 .LASF77
     /tmp/ccq2Ny1n.s:2178   .debug_str:0000000000000364 .LASF78
     /tmp/ccq2Ny1n.s:2244   .debug_str:0000000000000522 .LASF79
     /tmp/ccq2Ny1n.s:2238   .debug_str:00000000000004f8 .LASF80
     /tmp/ccq2Ny1n.s:2146   .debug_str:000000000000026a .LASF81
     /tmp/ccq2Ny1n.s:2126   .debug_str:00000000000001aa .LASF82
     /tmp/ccq2Ny1n.s:2290   .debug_str:0000000000000706 .LASF83
     /tmp/ccq2Ny1n.s:2220   .debug_str:0000000000000482 .LASF84
     /tmp/ccq2Ny1n.s:2300   .debug_str:0000000000000742 .LASF85
     /tmp/ccq2Ny1n.s:2222   .debug_str:0000000000000494 .LASF116
     /tmp/ccq2Ny1n.s:2228   .debug_str:00000000000004b9 .LASF86
     /tmp/ccq2Ny1n.s:2172   .debug_str:0000000000000333 .LASF87
     /tmp/ccq2Ny1n.s:2136   .debug_str:000000000000020c .LASF88
     /tmp/ccq2Ny1n.s:2154   .debug_str:000000000000029e .LASF91
     /tmp/ccq2Ny1n.s:2182   .debug_str:000000000000038a .LASF92
     /tmp/ccq2Ny1n.s:2250   .debug_str:000000000000053c .LASF93
     /tmp/ccq2Ny1n.s:2278   .debug_str:00000000000006ac .LASF94
     /tmp/ccq2Ny1n.s:2230   .debug_str:00000000000004c3 .LASF95
     /tmp/ccq2Ny1n.s:2276   .debug_str:000000000000069f .LASF117
     /tmp/ccq2Ny1n.s:2284   .debug_str:00000000000006dd .LASF118
     /tmp/ccq2Ny1n.s:105    .text:00000000000000a4 .LFB36
     /tmp/ccq2Ny1n.s:178    .text:000000000000012c .LFE36
     /tmp/ccq2Ny1n.s:2118   .debug_str:0000000000000164 .LASF96
     /tmp/ccq2Ny1n.s:2266   .debug_str:000000000000064d .LASF97
     /tmp/ccq2Ny1n.s:2124   .debug_str:000000000000019d .LASF98
     /tmp/ccq2Ny1n.s:129    .text:00000000000000c8 .LBB2
     /tmp/ccq2Ny1n.s:154    .text:0000000000000100 .LBE2
     /tmp/ccq2Ny1n.s:2002   .debug_loc:0000000000000000 .LLST3
     /tmp/ccq2Ny1n.s:145    .text:00000000000000f4 .LVL12
     /tmp/ccq2Ny1n.s:2296   .debug_str:000000000000072b .LASF119
     /tmp/ccq2Ny1n.s:17     .text:0000000000000000 .LFB35
     /tmp/ccq2Ny1n.s:99     .text:00000000000000a4 .LFE35
     /tmp/ccq2Ny1n.s:2014   .debug_loc:0000000000000037 .LLST0
     /tmp/ccq2Ny1n.s:2286   .debug_str:00000000000006ef .LASF99
     /tmp/ccq2Ny1n.s:2028   .debug_loc:0000000000000070 .LLST1
     /tmp/ccq2Ny1n.s:2035   .debug_loc:0000000000000093 .LLST2
     /tmp/ccq2Ny1n.s:52     .text:0000000000000038 .LVL4
     /tmp/ccq2Ny1n.s:59     .text:000000000000004c .LVL5
     /tmp/ccq2Ny1n.s:64     .text:000000000000005c .LVL6
     /tmp/ccq2Ny1n.s:69     .text:0000000000000068 .LVL7
     /tmp/ccq2Ny1n.s:2138   .debug_str:0000000000000218 .LASF100
     /tmp/ccq2Ny1n.s:2260   .debug_str:000000000000062f .LASF102
     /tmp/ccq2Ny1n.s:2098   .debug_str:00000000000000e9 .LASF101
     /tmp/ccq2Ny1n.s:2288   .debug_str:00000000000006fa .LASF103
     /tmp/ccq2Ny1n.s:2122   .debug_str:000000000000018e .LASF104
     /tmp/ccq2Ny1n.s:2192   .debug_str:00000000000003c0 .LASF105
     /tmp/ccq2Ny1n.s:2198   .debug_str:00000000000003eb .LASF106
     /tmp/ccq2Ny1n.s:2208   .debug_str:000000000000043c .LASF107
     /tmp/ccq2Ny1n.s:128    .text:00000000000000c8 .LVL10
     /tmp/ccq2Ny1n.s:133    .text:00000000000000d0 .LVL11
     /tmp/ccq2Ny1n.s:173    .text:0000000000000124 .LVL14
GAS LISTING /tmp/ccq2Ny1n.s 			page 10


     /tmp/ccq2Ny1n.s:21     .text:0000000000000000 .LVL0
     /tmp/ccq2Ny1n.s:41     .text:0000000000000020 .LVL2
     /tmp/ccq2Ny1n.s:37     .text:000000000000001c .LVL1
     /tmp/ccq2Ny1n.s:77     .text:0000000000000074 .LVL8
     /tmp/ccq2Ny1n.s:46     .text:0000000000000024 .LVL3
     /tmp/ccq2Ny1n.s:195    .debug_info:0000000000000000 .Ldebug_info0

UNDEFINED SYMBOLS
_Z11printStringPKc
_Z8printIntiii
_Z10time_sleepm
_Z13thread_createPP3TCBPFvPvES2_
